
ST7789_demo_f411ce.elf:     file format elf32-littlearm

Sections:
Idx Name          Size      VMA       LMA       File off  Algn
  0 .isr_vector   00000198  08000000  08000000  00010000  2**0
                  CONTENTS, ALLOC, LOAD, READONLY, DATA
  1 .text         00003f20  080001a0  080001a0  000101a0  2**4
                  CONTENTS, ALLOC, LOAD, READONLY, CODE
  2 .rodata       0000b4fc  080040c0  080040c0  000140c0  2**2
                  CONTENTS, ALLOC, LOAD, READONLY, DATA
  3 .ARM.extab    00000000  0800f5bc  0800f5bc  00020078  2**0
                  CONTENTS
  4 .ARM          00000008  0800f5bc  0800f5bc  0001f5bc  2**2
                  CONTENTS, ALLOC, LOAD, READONLY, DATA
  5 .preinit_array 00000000  0800f5c4  0800f5c4  00020078  2**0
                  CONTENTS, ALLOC, LOAD, DATA
  6 .init_array   00000004  0800f5c4  0800f5c4  0001f5c4  2**2
                  CONTENTS, ALLOC, LOAD, DATA
  7 .fini_array   00000004  0800f5c8  0800f5c8  0001f5c8  2**2
                  CONTENTS, ALLOC, LOAD, DATA
  8 .data         00000078  20000000  0800f5cc  00020000  2**2
                  CONTENTS, ALLOC, LOAD, DATA
  9 .bss          000000f8  20000078  0800f644  00020078  2**2
                  ALLOC
 10 ._user_heap_stack 00000600  20000170  0800f644  00020170  2**0
                  ALLOC
 11 .ARM.attributes 00000030  00000000  00000000  00020078  2**0
                  CONTENTS, READONLY
 12 .comment      00000053  00000000  00000000  000200a8  2**0
                  CONTENTS, READONLY
 13 .debug_frame  00000484  00000000  00000000  000200fc  2**2
                  CONTENTS, READONLY, DEBUGGING, OCTETS

Disassembly of section .text:

080001a0 <__do_global_dtors_aux>:
 80001a0:	b510      	push	{r4, lr}
 80001a2:	4c05      	ldr	r4, [pc, #20]	; (80001b8 <__do_global_dtors_aux+0x18>)
 80001a4:	7823      	ldrb	r3, [r4, #0]
 80001a6:	b933      	cbnz	r3, 80001b6 <__do_global_dtors_aux+0x16>
 80001a8:	4b04      	ldr	r3, [pc, #16]	; (80001bc <__do_global_dtors_aux+0x1c>)
 80001aa:	b113      	cbz	r3, 80001b2 <__do_global_dtors_aux+0x12>
 80001ac:	4804      	ldr	r0, [pc, #16]	; (80001c0 <__do_global_dtors_aux+0x20>)
 80001ae:	f3af 8000 	nop.w
 80001b2:	2301      	movs	r3, #1
 80001b4:	7023      	strb	r3, [r4, #0]
 80001b6:	bd10      	pop	{r4, pc}
 80001b8:	20000078 	.word	0x20000078
 80001bc:	00000000 	.word	0x00000000
 80001c0:	080040a8 	.word	0x080040a8

080001c4 <frame_dummy>:
 80001c4:	b508      	push	{r3, lr}
 80001c6:	4b03      	ldr	r3, [pc, #12]	; (80001d4 <frame_dummy+0x10>)
 80001c8:	b11b      	cbz	r3, 80001d2 <frame_dummy+0xe>
 80001ca:	4903      	ldr	r1, [pc, #12]	; (80001d8 <frame_dummy+0x14>)
 80001cc:	4803      	ldr	r0, [pc, #12]	; (80001dc <frame_dummy+0x18>)
 80001ce:	f3af 8000 	nop.w
 80001d2:	bd08      	pop	{r3, pc}
 80001d4:	00000000 	.word	0x00000000
 80001d8:	2000007c 	.word	0x2000007c
 80001dc:	080040a8 	.word	0x080040a8

080001e0 <memchr>:
 80001e0:	f001 01ff 	and.w	r1, r1, #255	; 0xff
 80001e4:	2a10      	cmp	r2, #16
 80001e6:	db2b      	blt.n	8000240 <memchr+0x60>
 80001e8:	f010 0f07 	tst.w	r0, #7
 80001ec:	d008      	beq.n	8000200 <memchr+0x20>
 80001ee:	f810 3b01 	ldrb.w	r3, [r0], #1
 80001f2:	3a01      	subs	r2, #1
 80001f4:	428b      	cmp	r3, r1
 80001f6:	d02d      	beq.n	8000254 <memchr+0x74>
 80001f8:	f010 0f07 	tst.w	r0, #7
 80001fc:	b342      	cbz	r2, 8000250 <memchr+0x70>
 80001fe:	d1f6      	bne.n	80001ee <memchr+0xe>
 8000200:	b4f0      	push	{r4, r5, r6, r7}
 8000202:	ea41 2101 	orr.w	r1, r1, r1, lsl #8
 8000206:	ea41 4101 	orr.w	r1, r1, r1, lsl #16
 800020a:	f022 0407 	bic.w	r4, r2, #7
 800020e:	f07f 0700 	mvns.w	r7, #0
 8000212:	2300      	movs	r3, #0
 8000214:	e8f0 5602 	ldrd	r5, r6, [r0], #8
 8000218:	3c08      	subs	r4, #8
 800021a:	ea85 0501 	eor.w	r5, r5, r1
 800021e:	ea86 0601 	eor.w	r6, r6, r1
 8000222:	fa85 f547 	uadd8	r5, r5, r7
 8000226:	faa3 f587 	sel	r5, r3, r7
 800022a:	fa86 f647 	uadd8	r6, r6, r7
 800022e:	faa5 f687 	sel	r6, r5, r7
 8000232:	b98e      	cbnz	r6, 8000258 <memchr+0x78>
 8000234:	d1ee      	bne.n	8000214 <memchr+0x34>
 8000236:	bcf0      	pop	{r4, r5, r6, r7}
 8000238:	f001 01ff 	and.w	r1, r1, #255	; 0xff
 800023c:	f002 0207 	and.w	r2, r2, #7
 8000240:	b132      	cbz	r2, 8000250 <memchr+0x70>
 8000242:	f810 3b01 	ldrb.w	r3, [r0], #1
 8000246:	3a01      	subs	r2, #1
 8000248:	ea83 0301 	eor.w	r3, r3, r1
 800024c:	b113      	cbz	r3, 8000254 <memchr+0x74>
 800024e:	d1f8      	bne.n	8000242 <memchr+0x62>
 8000250:	2000      	movs	r0, #0
 8000252:	4770      	bx	lr
 8000254:	3801      	subs	r0, #1
 8000256:	4770      	bx	lr
 8000258:	2d00      	cmp	r5, #0
 800025a:	bf06      	itte	eq
 800025c:	4635      	moveq	r5, r6
 800025e:	3803      	subeq	r0, #3
 8000260:	3807      	subne	r0, #7
 8000262:	f015 0f01 	tst.w	r5, #1
 8000266:	d107      	bne.n	8000278 <memchr+0x98>
 8000268:	3001      	adds	r0, #1
 800026a:	f415 7f80 	tst.w	r5, #256	; 0x100
 800026e:	bf02      	ittt	eq
 8000270:	3001      	addeq	r0, #1
 8000272:	f415 3fc0 	tsteq.w	r5, #98304	; 0x18000
 8000276:	3001      	addeq	r0, #1
 8000278:	bcf0      	pop	{r4, r5, r6, r7}
 800027a:	3801      	subs	r0, #1
 800027c:	4770      	bx	lr
 800027e:	bf00      	nop

08000280 <__aeabi_uldivmod>:
 8000280:	b953      	cbnz	r3, 8000298 <__aeabi_uldivmod+0x18>
 8000282:	b94a      	cbnz	r2, 8000298 <__aeabi_uldivmod+0x18>
 8000284:	2900      	cmp	r1, #0
 8000286:	bf08      	it	eq
 8000288:	2800      	cmpeq	r0, #0
 800028a:	bf1c      	itt	ne
 800028c:	f04f 31ff 	movne.w	r1, #4294967295
 8000290:	f04f 30ff 	movne.w	r0, #4294967295
 8000294:	f000 b96e 	b.w	8000574 <__aeabi_idiv0>
 8000298:	f1ad 0c08 	sub.w	ip, sp, #8
 800029c:	e96d ce04 	strd	ip, lr, [sp, #-16]!
 80002a0:	f000 f806 	bl	80002b0 <__udivmoddi4>
 80002a4:	f8dd e004 	ldr.w	lr, [sp, #4]
 80002a8:	e9dd 2302 	ldrd	r2, r3, [sp, #8]
 80002ac:	b004      	add	sp, #16
 80002ae:	4770      	bx	lr

080002b0 <__udivmoddi4>:
 80002b0:	e92d 47f0 	stmdb	sp!, {r4, r5, r6, r7, r8, r9, sl, lr}
 80002b4:	9d08      	ldr	r5, [sp, #32]
 80002b6:	4604      	mov	r4, r0
 80002b8:	468c      	mov	ip, r1
 80002ba:	2b00      	cmp	r3, #0
 80002bc:	f040 8083 	bne.w	80003c6 <__udivmoddi4+0x116>
 80002c0:	428a      	cmp	r2, r1
 80002c2:	4617      	mov	r7, r2
 80002c4:	d947      	bls.n	8000356 <__udivmoddi4+0xa6>
 80002c6:	fab2 f282 	clz	r2, r2
 80002ca:	b142      	cbz	r2, 80002de <__udivmoddi4+0x2e>
 80002cc:	f1c2 0020 	rsb	r0, r2, #32
 80002d0:	fa24 f000 	lsr.w	r0, r4, r0
 80002d4:	4091      	lsls	r1, r2
 80002d6:	4097      	lsls	r7, r2
 80002d8:	ea40 0c01 	orr.w	ip, r0, r1
 80002dc:	4094      	lsls	r4, r2
 80002de:	ea4f 4817 	mov.w	r8, r7, lsr #16
 80002e2:	0c23      	lsrs	r3, r4, #16
 80002e4:	fbbc f6f8 	udiv	r6, ip, r8
 80002e8:	fa1f fe87 	uxth.w	lr, r7
 80002ec:	fb08 c116 	mls	r1, r8, r6, ip
 80002f0:	ea43 4301 	orr.w	r3, r3, r1, lsl #16
 80002f4:	fb06 f10e 	mul.w	r1, r6, lr
 80002f8:	4299      	cmp	r1, r3
 80002fa:	d909      	bls.n	8000310 <__udivmoddi4+0x60>
 80002fc:	18fb      	adds	r3, r7, r3
 80002fe:	f106 30ff 	add.w	r0, r6, #4294967295
 8000302:	f080 8119 	bcs.w	8000538 <__udivmoddi4+0x288>
 8000306:	4299      	cmp	r1, r3
 8000308:	f240 8116 	bls.w	8000538 <__udivmoddi4+0x288>
 800030c:	3e02      	subs	r6, #2
 800030e:	443b      	add	r3, r7
 8000310:	1a5b      	subs	r3, r3, r1
 8000312:	b2a4      	uxth	r4, r4
 8000314:	fbb3 f0f8 	udiv	r0, r3, r8
 8000318:	fb08 3310 	mls	r3, r8, r0, r3
 800031c:	ea44 4403 	orr.w	r4, r4, r3, lsl #16
 8000320:	fb00 fe0e 	mul.w	lr, r0, lr
 8000324:	45a6      	cmp	lr, r4
 8000326:	d909      	bls.n	800033c <__udivmoddi4+0x8c>
 8000328:	193c      	adds	r4, r7, r4
 800032a:	f100 33ff 	add.w	r3, r0, #4294967295
 800032e:	f080 8105 	bcs.w	800053c <__udivmoddi4+0x28c>
 8000332:	45a6      	cmp	lr, r4
 8000334:	f240 8102 	bls.w	800053c <__udivmoddi4+0x28c>
 8000338:	3802      	subs	r0, #2
 800033a:	443c      	add	r4, r7
 800033c:	ea40 4006 	orr.w	r0, r0, r6, lsl #16
 8000340:	eba4 040e 	sub.w	r4, r4, lr
 8000344:	2600      	movs	r6, #0
 8000346:	b11d      	cbz	r5, 8000350 <__udivmoddi4+0xa0>
 8000348:	40d4      	lsrs	r4, r2
 800034a:	2300      	movs	r3, #0
 800034c:	e9c5 4300 	strd	r4, r3, [r5]
 8000350:	4631      	mov	r1, r6
 8000352:	e8bd 87f0 	ldmia.w	sp!, {r4, r5, r6, r7, r8, r9, sl, pc}
 8000356:	b902      	cbnz	r2, 800035a <__udivmoddi4+0xaa>
 8000358:	deff      	udf	#255	; 0xff
 800035a:	fab2 f282 	clz	r2, r2
 800035e:	2a00      	cmp	r2, #0
 8000360:	d150      	bne.n	8000404 <__udivmoddi4+0x154>
 8000362:	1bcb      	subs	r3, r1, r7
 8000364:	ea4f 4e17 	mov.w	lr, r7, lsr #16
 8000368:	fa1f f887 	uxth.w	r8, r7
 800036c:	2601      	movs	r6, #1
 800036e:	fbb3 fcfe 	udiv	ip, r3, lr
 8000372:	0c21      	lsrs	r1, r4, #16
 8000374:	fb0e 331c 	mls	r3, lr, ip, r3
 8000378:	ea41 4103 	orr.w	r1, r1, r3, lsl #16
 800037c:	fb08 f30c 	mul.w	r3, r8, ip
 8000380:	428b      	cmp	r3, r1
 8000382:	d907      	bls.n	8000394 <__udivmoddi4+0xe4>
 8000384:	1879      	adds	r1, r7, r1
 8000386:	f10c 30ff 	add.w	r0, ip, #4294967295
 800038a:	d202      	bcs.n	8000392 <__udivmoddi4+0xe2>
 800038c:	428b      	cmp	r3, r1
 800038e:	f200 80e9 	bhi.w	8000564 <__udivmoddi4+0x2b4>
 8000392:	4684      	mov	ip, r0
 8000394:	1ac9      	subs	r1, r1, r3
 8000396:	b2a3      	uxth	r3, r4
 8000398:	fbb1 f0fe 	udiv	r0, r1, lr
 800039c:	fb0e 1110 	mls	r1, lr, r0, r1
 80003a0:	ea43 4401 	orr.w	r4, r3, r1, lsl #16
 80003a4:	fb08 f800 	mul.w	r8, r8, r0
 80003a8:	45a0      	cmp	r8, r4
 80003aa:	d907      	bls.n	80003bc <__udivmoddi4+0x10c>
 80003ac:	193c      	adds	r4, r7, r4
 80003ae:	f100 33ff 	add.w	r3, r0, #4294967295
 80003b2:	d202      	bcs.n	80003ba <__udivmoddi4+0x10a>
 80003b4:	45a0      	cmp	r8, r4
 80003b6:	f200 80d9 	bhi.w	800056c <__udivmoddi4+0x2bc>
 80003ba:	4618      	mov	r0, r3
 80003bc:	eba4 0408 	sub.w	r4, r4, r8
 80003c0:	ea40 400c 	orr.w	r0, r0, ip, lsl #16
 80003c4:	e7bf      	b.n	8000346 <__udivmoddi4+0x96>
 80003c6:	428b      	cmp	r3, r1
 80003c8:	d909      	bls.n	80003de <__udivmoddi4+0x12e>
 80003ca:	2d00      	cmp	r5, #0
 80003cc:	f000 80b1 	beq.w	8000532 <__udivmoddi4+0x282>
 80003d0:	2600      	movs	r6, #0
 80003d2:	e9c5 0100 	strd	r0, r1, [r5]
 80003d6:	4630      	mov	r0, r6
 80003d8:	4631      	mov	r1, r6
 80003da:	e8bd 87f0 	ldmia.w	sp!, {r4, r5, r6, r7, r8, r9, sl, pc}
 80003de:	fab3 f683 	clz	r6, r3
 80003e2:	2e00      	cmp	r6, #0
 80003e4:	d14a      	bne.n	800047c <__udivmoddi4+0x1cc>
 80003e6:	428b      	cmp	r3, r1
 80003e8:	d302      	bcc.n	80003f0 <__udivmoddi4+0x140>
 80003ea:	4282      	cmp	r2, r0
 80003ec:	f200 80b8 	bhi.w	8000560 <__udivmoddi4+0x2b0>
 80003f0:	1a84      	subs	r4, r0, r2
 80003f2:	eb61 0103 	sbc.w	r1, r1, r3
 80003f6:	2001      	movs	r0, #1
 80003f8:	468c      	mov	ip, r1
 80003fa:	2d00      	cmp	r5, #0
 80003fc:	d0a8      	beq.n	8000350 <__udivmoddi4+0xa0>
 80003fe:	e9c5 4c00 	strd	r4, ip, [r5]
 8000402:	e7a5      	b.n	8000350 <__udivmoddi4+0xa0>
 8000404:	f1c2 0320 	rsb	r3, r2, #32
 8000408:	fa20 f603 	lsr.w	r6, r0, r3
 800040c:	4097      	lsls	r7, r2
 800040e:	fa01 f002 	lsl.w	r0, r1, r2
 8000412:	ea4f 4e17 	mov.w	lr, r7, lsr #16
 8000416:	40d9      	lsrs	r1, r3
 8000418:	4330      	orrs	r0, r6
 800041a:	0c03      	lsrs	r3, r0, #16
 800041c:	fbb1 f6fe 	udiv	r6, r1, lr
 8000420:	fa1f f887 	uxth.w	r8, r7
 8000424:	fb0e 1116 	mls	r1, lr, r6, r1
 8000428:	ea43 4301 	orr.w	r3, r3, r1, lsl #16
 800042c:	fb06 f108 	mul.w	r1, r6, r8
 8000430:	4299      	cmp	r1, r3
 8000432:	fa04 f402 	lsl.w	r4, r4, r2
 8000436:	d909      	bls.n	800044c <__udivmoddi4+0x19c>
 8000438:	18fb      	adds	r3, r7, r3
 800043a:	f106 3cff 	add.w	ip, r6, #4294967295
 800043e:	f080 808d 	bcs.w	800055c <__udivmoddi4+0x2ac>
 8000442:	4299      	cmp	r1, r3
 8000444:	f240 808a 	bls.w	800055c <__udivmoddi4+0x2ac>
 8000448:	3e02      	subs	r6, #2
 800044a:	443b      	add	r3, r7
 800044c:	1a5b      	subs	r3, r3, r1
 800044e:	b281      	uxth	r1, r0
 8000450:	fbb3 f0fe 	udiv	r0, r3, lr
 8000454:	fb0e 3310 	mls	r3, lr, r0, r3
 8000458:	ea41 4103 	orr.w	r1, r1, r3, lsl #16
 800045c:	fb00 f308 	mul.w	r3, r0, r8
 8000460:	428b      	cmp	r3, r1
 8000462:	d907      	bls.n	8000474 <__udivmoddi4+0x1c4>
 8000464:	1879      	adds	r1, r7, r1
 8000466:	f100 3cff 	add.w	ip, r0, #4294967295
 800046a:	d273      	bcs.n	8000554 <__udivmoddi4+0x2a4>
 800046c:	428b      	cmp	r3, r1
 800046e:	d971      	bls.n	8000554 <__udivmoddi4+0x2a4>
 8000470:	3802      	subs	r0, #2
 8000472:	4439      	add	r1, r7
 8000474:	1acb      	subs	r3, r1, r3
 8000476:	ea40 4606 	orr.w	r6, r0, r6, lsl #16
 800047a:	e778      	b.n	800036e <__udivmoddi4+0xbe>
 800047c:	f1c6 0c20 	rsb	ip, r6, #32
 8000480:	fa03 f406 	lsl.w	r4, r3, r6
 8000484:	fa22 f30c 	lsr.w	r3, r2, ip
 8000488:	431c      	orrs	r4, r3
 800048a:	fa20 f70c 	lsr.w	r7, r0, ip
 800048e:	fa01 f306 	lsl.w	r3, r1, r6
 8000492:	ea4f 4e14 	mov.w	lr, r4, lsr #16
 8000496:	fa21 f10c 	lsr.w	r1, r1, ip
 800049a:	431f      	orrs	r7, r3
 800049c:	0c3b      	lsrs	r3, r7, #16
 800049e:	fbb1 f9fe 	udiv	r9, r1, lr
 80004a2:	fa1f f884 	uxth.w	r8, r4
 80004a6:	fb0e 1119 	mls	r1, lr, r9, r1
 80004aa:	ea43 4101 	orr.w	r1, r3, r1, lsl #16
 80004ae:	fb09 fa08 	mul.w	sl, r9, r8
 80004b2:	458a      	cmp	sl, r1
 80004b4:	fa02 f206 	lsl.w	r2, r2, r6
 80004b8:	fa00 f306 	lsl.w	r3, r0, r6
 80004bc:	d908      	bls.n	80004d0 <__udivmoddi4+0x220>
 80004be:	1861      	adds	r1, r4, r1
 80004c0:	f109 30ff 	add.w	r0, r9, #4294967295
 80004c4:	d248      	bcs.n	8000558 <__udivmoddi4+0x2a8>
 80004c6:	458a      	cmp	sl, r1
 80004c8:	d946      	bls.n	8000558 <__udivmoddi4+0x2a8>
 80004ca:	f1a9 0902 	sub.w	r9, r9, #2
 80004ce:	4421      	add	r1, r4
 80004d0:	eba1 010a 	sub.w	r1, r1, sl
 80004d4:	b2bf      	uxth	r7, r7
 80004d6:	fbb1 f0fe 	udiv	r0, r1, lr
 80004da:	fb0e 1110 	mls	r1, lr, r0, r1
 80004de:	ea47 4701 	orr.w	r7, r7, r1, lsl #16
 80004e2:	fb00 f808 	mul.w	r8, r0, r8
 80004e6:	45b8      	cmp	r8, r7
 80004e8:	d907      	bls.n	80004fa <__udivmoddi4+0x24a>
 80004ea:	19e7      	adds	r7, r4, r7
 80004ec:	f100 31ff 	add.w	r1, r0, #4294967295
 80004f0:	d22e      	bcs.n	8000550 <__udivmoddi4+0x2a0>
 80004f2:	45b8      	cmp	r8, r7
 80004f4:	d92c      	bls.n	8000550 <__udivmoddi4+0x2a0>
 80004f6:	3802      	subs	r0, #2
 80004f8:	4427      	add	r7, r4
 80004fa:	ea40 4009 	orr.w	r0, r0, r9, lsl #16
 80004fe:	eba7 0708 	sub.w	r7, r7, r8
 8000502:	fba0 8902 	umull	r8, r9, r0, r2
 8000506:	454f      	cmp	r7, r9
 8000508:	46c6      	mov	lr, r8
 800050a:	4649      	mov	r1, r9
 800050c:	d31a      	bcc.n	8000544 <__udivmoddi4+0x294>
 800050e:	d017      	beq.n	8000540 <__udivmoddi4+0x290>
 8000510:	b15d      	cbz	r5, 800052a <__udivmoddi4+0x27a>
 8000512:	ebb3 020e 	subs.w	r2, r3, lr
 8000516:	eb67 0701 	sbc.w	r7, r7, r1
 800051a:	fa07 fc0c 	lsl.w	ip, r7, ip
 800051e:	40f2      	lsrs	r2, r6
 8000520:	ea4c 0202 	orr.w	r2, ip, r2
 8000524:	40f7      	lsrs	r7, r6
 8000526:	e9c5 2700 	strd	r2, r7, [r5]
 800052a:	2600      	movs	r6, #0
 800052c:	4631      	mov	r1, r6
 800052e:	e8bd 87f0 	ldmia.w	sp!, {r4, r5, r6, r7, r8, r9, sl, pc}
 8000532:	462e      	mov	r6, r5
 8000534:	4628      	mov	r0, r5
 8000536:	e70b      	b.n	8000350 <__udivmoddi4+0xa0>
 8000538:	4606      	mov	r6, r0
 800053a:	e6e9      	b.n	8000310 <__udivmoddi4+0x60>
 800053c:	4618      	mov	r0, r3
 800053e:	e6fd      	b.n	800033c <__udivmoddi4+0x8c>
 8000540:	4543      	cmp	r3, r8
 8000542:	d2e5      	bcs.n	8000510 <__udivmoddi4+0x260>
 8000544:	ebb8 0e02 	subs.w	lr, r8, r2
 8000548:	eb69 0104 	sbc.w	r1, r9, r4
 800054c:	3801      	subs	r0, #1
 800054e:	e7df      	b.n	8000510 <__udivmoddi4+0x260>
 8000550:	4608      	mov	r0, r1
 8000552:	e7d2      	b.n	80004fa <__udivmoddi4+0x24a>
 8000554:	4660      	mov	r0, ip
 8000556:	e78d      	b.n	8000474 <__udivmoddi4+0x1c4>
 8000558:	4681      	mov	r9, r0
 800055a:	e7b9      	b.n	80004d0 <__udivmoddi4+0x220>
 800055c:	4666      	mov	r6, ip
 800055e:	e775      	b.n	800044c <__udivmoddi4+0x19c>
 8000560:	4630      	mov	r0, r6
 8000562:	e74a      	b.n	80003fa <__udivmoddi4+0x14a>
 8000564:	f1ac 0c02 	sub.w	ip, ip, #2
 8000568:	4439      	add	r1, r7
 800056a:	e713      	b.n	8000394 <__udivmoddi4+0xe4>
 800056c:	3802      	subs	r0, #2
 800056e:	443c      	add	r4, r7
 8000570:	e724      	b.n	80003bc <__udivmoddi4+0x10c>
 8000572:	bf00      	nop

08000574 <__aeabi_idiv0>:
 8000574:	4770      	bx	lr
 8000576:	bf00      	nop

08000578 <SystemClock_Config>:
 8000578:	b530      	push	{r4, r5, lr}
 800057a:	2300      	movs	r3, #0
 800057c:	b095      	sub	sp, #84	; 0x54
 800057e:	e9cd 330b 	strd	r3, r3, [sp, #44]	; 0x2c
 8000582:	e9cd 3309 	strd	r3, r3, [sp, #36]	; 0x24
 8000586:	e9cd 3303 	strd	r3, r3, [sp, #12]
 800058a:	e9cd 3305 	strd	r3, r3, [sp, #20]
 800058e:	4922      	ldr	r1, [pc, #136]	; (8000618 <SystemClock_Config+0xa0>)
 8000590:	9300      	str	r3, [sp, #0]
 8000592:	930d      	str	r3, [sp, #52]	; 0x34
 8000594:	9302      	str	r3, [sp, #8]
 8000596:	6c08      	ldr	r0, [r1, #64]	; 0x40
 8000598:	4a20      	ldr	r2, [pc, #128]	; (800061c <SystemClock_Config+0xa4>)
 800059a:	f040 5080 	orr.w	r0, r0, #268435456	; 0x10000000
 800059e:	6408      	str	r0, [r1, #64]	; 0x40
 80005a0:	6c09      	ldr	r1, [r1, #64]	; 0x40
 80005a2:	f001 5180 	and.w	r1, r1, #268435456	; 0x10000000
 80005a6:	9100      	str	r1, [sp, #0]
 80005a8:	9900      	ldr	r1, [sp, #0]
 80005aa:	9301      	str	r3, [sp, #4]
 80005ac:	6813      	ldr	r3, [r2, #0]
 80005ae:	f443 4340 	orr.w	r3, r3, #49152	; 0xc000
 80005b2:	6013      	str	r3, [r2, #0]
 80005b4:	6813      	ldr	r3, [r2, #0]
 80005b6:	f403 4340 	and.w	r3, r3, #49152	; 0xc000
 80005ba:	9301      	str	r3, [sp, #4]
 80005bc:	2302      	movs	r3, #2
 80005be:	2401      	movs	r4, #1
 80005c0:	9a01      	ldr	r2, [sp, #4]
 80005c2:	9308      	str	r3, [sp, #32]
 80005c4:	2202      	movs	r2, #2
 80005c6:	2300      	movs	r3, #0
 80005c8:	2110      	movs	r1, #16
 80005ca:	e9cd 230e 	strd	r2, r3, [sp, #56]	; 0x38
 80005ce:	e9cd 410b 	strd	r4, r1, [sp, #44]	; 0x2c
 80005d2:	25c0      	movs	r5, #192	; 0xc0
 80005d4:	2410      	movs	r4, #16
 80005d6:	2202      	movs	r2, #2
 80005d8:	2304      	movs	r3, #4
 80005da:	a808      	add	r0, sp, #32
 80005dc:	e9cd 4510 	strd	r4, r5, [sp, #64]	; 0x40
 80005e0:	e9cd 2312 	strd	r2, r3, [sp, #72]	; 0x48
 80005e4:	f002 fae8 	bl	8002bb8 <HAL_RCC_OscConfig>
 80005e8:	b108      	cbz	r0, 80005ee <SystemClock_Config+0x76>
 80005ea:	b672      	cpsid	i
 80005ec:	e7fe      	b.n	80005ec <SystemClock_Config+0x74>
 80005ee:	4603      	mov	r3, r0
 80005f0:	240f      	movs	r4, #15
 80005f2:	2502      	movs	r5, #2
 80005f4:	9306      	str	r3, [sp, #24]
 80005f6:	2200      	movs	r2, #0
 80005f8:	f44f 5380 	mov.w	r3, #4096	; 0x1000
 80005fc:	a802      	add	r0, sp, #8
 80005fe:	2103      	movs	r1, #3
 8000600:	e9cd 4502 	strd	r4, r5, [sp, #8]
 8000604:	e9cd 2304 	strd	r2, r3, [sp, #16]
 8000608:	f002 fcf2 	bl	8002ff0 <HAL_RCC_ClockConfig>
 800060c:	b108      	cbz	r0, 8000612 <SystemClock_Config+0x9a>
 800060e:	b672      	cpsid	i
 8000610:	e7fe      	b.n	8000610 <SystemClock_Config+0x98>
 8000612:	b015      	add	sp, #84	; 0x54
 8000614:	bd30      	pop	{r4, r5, pc}
 8000616:	bf00      	nop
 8000618:	40023800 	.word	0x40023800
 800061c:	40007000 	.word	0x40007000

08000620 <main>:
 8000620:	b500      	push	{lr}
 8000622:	2400      	movs	r4, #0
 8000624:	b089      	sub	sp, #36	; 0x24
 8000626:	f001 ff4b 	bl	80024c0 <HAL_Init>
 800062a:	f7ff ffa5 	bl	8000578 <SystemClock_Config>
 800062e:	e9cd 4402 	strd	r4, r4, [sp, #8]
 8000632:	e9cd 4404 	strd	r4, r4, [sp, #16]
 8000636:	4d2d      	ldr	r5, [pc, #180]	; (80006ec <main+0xcc>)
 8000638:	9400      	str	r4, [sp, #0]
 800063a:	9406      	str	r4, [sp, #24]
 800063c:	6b2b      	ldr	r3, [r5, #48]	; 0x30
 800063e:	482c      	ldr	r0, [pc, #176]	; (80006f0 <main+0xd0>)
 8000640:	4e2c      	ldr	r6, [pc, #176]	; (80006f4 <main+0xd4>)
 8000642:	f043 0301 	orr.w	r3, r3, #1
 8000646:	632b      	str	r3, [r5, #48]	; 0x30
 8000648:	6b2b      	ldr	r3, [r5, #48]	; 0x30
 800064a:	f003 0301 	and.w	r3, r3, #1
 800064e:	9300      	str	r3, [sp, #0]
 8000650:	9b00      	ldr	r3, [sp, #0]
 8000652:	9401      	str	r4, [sp, #4]
 8000654:	6b2b      	ldr	r3, [r5, #48]	; 0x30
 8000656:	f043 0302 	orr.w	r3, r3, #2
 800065a:	632b      	str	r3, [r5, #48]	; 0x30
 800065c:	6b2b      	ldr	r3, [r5, #48]	; 0x30
 800065e:	f003 0302 	and.w	r3, r3, #2
 8000662:	9301      	str	r3, [sp, #4]
 8000664:	2201      	movs	r2, #1
 8000666:	f240 4106 	movw	r1, #1030	; 0x406
 800066a:	9b01      	ldr	r3, [sp, #4]
 800066c:	f002 faa0 	bl	8002bb0 <HAL_GPIO_WritePin>
 8000670:	f240 4206 	movw	r2, #1030	; 0x406
 8000674:	2301      	movs	r3, #1
 8000676:	e9cd 2302 	strd	r2, r3, [sp, #8]
 800067a:	481d      	ldr	r0, [pc, #116]	; (80006f0 <main+0xd0>)
 800067c:	2200      	movs	r2, #0
 800067e:	2303      	movs	r3, #3
 8000680:	a902      	add	r1, sp, #8
 8000682:	e9cd 2304 	strd	r2, r3, [sp, #16]
 8000686:	f002 f9a7 	bl	80029d8 <HAL_GPIO_Init>
 800068a:	9402      	str	r4, [sp, #8]
 800068c:	6b2b      	ldr	r3, [r5, #48]	; 0x30
 800068e:	f443 0380 	orr.w	r3, r3, #4194304	; 0x400000
 8000692:	632b      	str	r3, [r5, #48]	; 0x30
 8000694:	6b2b      	ldr	r3, [r5, #48]	; 0x30
 8000696:	f403 0380 	and.w	r3, r3, #4194304	; 0x400000
 800069a:	4622      	mov	r2, r4
 800069c:	2101      	movs	r1, #1
 800069e:	9302      	str	r3, [sp, #8]
 80006a0:	203a      	movs	r0, #58	; 0x3a
 80006a2:	9b02      	ldr	r3, [sp, #8]
 80006a4:	f001 ff5e 	bl	8002564 <HAL_NVIC_SetPriority>
 80006a8:	203a      	movs	r0, #58	; 0x3a
 80006aa:	f001 ff93 	bl	80025d4 <HAL_NVIC_EnableIRQ>
 80006ae:	4812      	ldr	r0, [pc, #72]	; (80006f8 <main+0xd8>)
 80006b0:	f44f 7582 	mov.w	r5, #260	; 0x104
 80006b4:	f44f 6100 	mov.w	r1, #2048	; 0x800
 80006b8:	f44f 7200 	mov.w	r2, #512	; 0x200
 80006bc:	230a      	movs	r3, #10
 80006be:	e9c0 4404 	strd	r4, r4, [r0, #16]
 80006c2:	e9c0 4407 	strd	r4, r4, [r0, #28]
 80006c6:	e9c0 4409 	strd	r4, r4, [r0, #36]	; 0x24
 80006ca:	e9c0 6500 	strd	r6, r5, [r0]
 80006ce:	6084      	str	r4, [r0, #8]
 80006d0:	60c1      	str	r1, [r0, #12]
 80006d2:	6182      	str	r2, [r0, #24]
 80006d4:	62c3      	str	r3, [r0, #44]	; 0x2c
 80006d6:	f002 fd89 	bl	80031ec <HAL_SPI_Init>
 80006da:	b108      	cbz	r0, 80006e0 <main+0xc0>
 80006dc:	b672      	cpsid	i
 80006de:	e7fe      	b.n	80006de <main+0xbe>
 80006e0:	f000 fa86 	bl	8000bf0 <ST7789_Init>
 80006e4:	f001 fa20 	bl	8001b28 <ST7789_Test>
 80006e8:	e7fc      	b.n	80006e4 <main+0xc4>
 80006ea:	bf00      	nop
 80006ec:	40023800 	.word	0x40023800
 80006f0:	40020400 	.word	0x40020400
 80006f4:	40013000 	.word	0x40013000
 80006f8:	200000a4 	.word	0x200000a4

080006fc <Error_Handler>:
 80006fc:	b672      	cpsid	i
 80006fe:	e7fe      	b.n	80006fe <Error_Handler+0x2>

08000700 <HAL_MspInit>:
 8000700:	b082      	sub	sp, #8
 8000702:	4b0c      	ldr	r3, [pc, #48]	; (8000734 <HAL_MspInit+0x34>)
 8000704:	2100      	movs	r1, #0
 8000706:	9100      	str	r1, [sp, #0]
 8000708:	6c5a      	ldr	r2, [r3, #68]	; 0x44
 800070a:	f442 4280 	orr.w	r2, r2, #16384	; 0x4000
 800070e:	645a      	str	r2, [r3, #68]	; 0x44
 8000710:	6c5a      	ldr	r2, [r3, #68]	; 0x44
 8000712:	f402 4280 	and.w	r2, r2, #16384	; 0x4000
 8000716:	9200      	str	r2, [sp, #0]
 8000718:	9a00      	ldr	r2, [sp, #0]
 800071a:	9101      	str	r1, [sp, #4]
 800071c:	6c1a      	ldr	r2, [r3, #64]	; 0x40
 800071e:	f042 5280 	orr.w	r2, r2, #268435456	; 0x10000000
 8000722:	641a      	str	r2, [r3, #64]	; 0x40
 8000724:	6c1b      	ldr	r3, [r3, #64]	; 0x40
 8000726:	f003 5380 	and.w	r3, r3, #268435456	; 0x10000000
 800072a:	9301      	str	r3, [sp, #4]
 800072c:	9b01      	ldr	r3, [sp, #4]
 800072e:	b002      	add	sp, #8
 8000730:	4770      	bx	lr
 8000732:	bf00      	nop
 8000734:	40023800 	.word	0x40023800

08000738 <HAL_SPI_MspInit>:
 8000738:	b570      	push	{r4, r5, r6, lr}
 800073a:	6802      	ldr	r2, [r0, #0]
 800073c:	4b2b      	ldr	r3, [pc, #172]	; (80007ec <HAL_SPI_MspInit+0xb4>)
 800073e:	b088      	sub	sp, #32
 8000740:	2400      	movs	r4, #0
 8000742:	429a      	cmp	r2, r3
 8000744:	e9cd 4402 	strd	r4, r4, [sp, #8]
 8000748:	e9cd 4404 	strd	r4, r4, [sp, #16]
 800074c:	9406      	str	r4, [sp, #24]
 800074e:	d001      	beq.n	8000754 <HAL_SPI_MspInit+0x1c>
 8000750:	b008      	add	sp, #32
 8000752:	bd70      	pop	{r4, r5, r6, pc}
 8000754:	f503 3384 	add.w	r3, r3, #67584	; 0x10800
 8000758:	9400      	str	r4, [sp, #0]
 800075a:	6c5a      	ldr	r2, [r3, #68]	; 0x44
 800075c:	4e24      	ldr	r6, [pc, #144]	; (80007f0 <HAL_SPI_MspInit+0xb8>)
 800075e:	f442 5280 	orr.w	r2, r2, #4096	; 0x1000
 8000762:	645a      	str	r2, [r3, #68]	; 0x44
 8000764:	6c5a      	ldr	r2, [r3, #68]	; 0x44
 8000766:	f402 5280 	and.w	r2, r2, #4096	; 0x1000
 800076a:	9200      	str	r2, [sp, #0]
 800076c:	9a00      	ldr	r2, [sp, #0]
 800076e:	9401      	str	r4, [sp, #4]
 8000770:	6b1a      	ldr	r2, [r3, #48]	; 0x30
 8000772:	f042 0201 	orr.w	r2, r2, #1
 8000776:	631a      	str	r2, [r3, #48]	; 0x30
 8000778:	6b1b      	ldr	r3, [r3, #48]	; 0x30
 800077a:	f003 0301 	and.w	r3, r3, #1
 800077e:	9301      	str	r3, [sp, #4]
 8000780:	22a0      	movs	r2, #160	; 0xa0
 8000782:	2302      	movs	r3, #2
 8000784:	e9cd 2302 	strd	r2, r3, [sp, #8]
 8000788:	2200      	movs	r2, #0
 800078a:	2303      	movs	r3, #3
 800078c:	e9cd 2304 	strd	r2, r3, [sp, #16]
 8000790:	a902      	add	r1, sp, #8
 8000792:	2305      	movs	r3, #5
 8000794:	4605      	mov	r5, r0
 8000796:	9801      	ldr	r0, [sp, #4]
 8000798:	4816      	ldr	r0, [pc, #88]	; (80007f4 <HAL_SPI_MspInit+0xbc>)
 800079a:	9306      	str	r3, [sp, #24]
 800079c:	f002 f91c 	bl	80029d8 <HAL_GPIO_Init>
 80007a0:	4b15      	ldr	r3, [pc, #84]	; (80007f8 <HAL_SPI_MspInit+0xc0>)
 80007a2:	6033      	str	r3, [r6, #0]
 80007a4:	f04f 6080 	mov.w	r0, #67108864	; 0x4000000
 80007a8:	2140      	movs	r1, #64	; 0x40
 80007aa:	f44f 6280 	mov.w	r2, #1024	; 0x400
 80007ae:	f44f 3340 	mov.w	r3, #196608	; 0x30000
 80007b2:	6070      	str	r0, [r6, #4]
 80007b4:	4630      	mov	r0, r6
 80007b6:	e9c6 4405 	strd	r4, r4, [r6, #20]
 80007ba:	60f4      	str	r4, [r6, #12]
 80007bc:	61f4      	str	r4, [r6, #28]
 80007be:	6274      	str	r4, [r6, #36]	; 0x24
 80007c0:	60b1      	str	r1, [r6, #8]
 80007c2:	6132      	str	r2, [r6, #16]
 80007c4:	6233      	str	r3, [r6, #32]
 80007c6:	f001 ff2d 	bl	8002624 <HAL_DMA_Init>
 80007ca:	b958      	cbnz	r0, 80007e4 <HAL_SPI_MspInit+0xac>
 80007cc:	2200      	movs	r2, #0
 80007ce:	2101      	movs	r1, #1
 80007d0:	64ae      	str	r6, [r5, #72]	; 0x48
 80007d2:	2023      	movs	r0, #35	; 0x23
 80007d4:	63b5      	str	r5, [r6, #56]	; 0x38
 80007d6:	f001 fec5 	bl	8002564 <HAL_NVIC_SetPriority>
 80007da:	2023      	movs	r0, #35	; 0x23
 80007dc:	f001 fefa 	bl	80025d4 <HAL_NVIC_EnableIRQ>
 80007e0:	b008      	add	sp, #32
 80007e2:	bd70      	pop	{r4, r5, r6, pc}
 80007e4:	f7ff ff8a 	bl	80006fc <Error_Handler>
 80007e8:	e7f0      	b.n	80007cc <HAL_SPI_MspInit+0x94>
 80007ea:	bf00      	nop
 80007ec:	40013000 	.word	0x40013000
 80007f0:	200000fc 	.word	0x200000fc
 80007f4:	40020000 	.word	0x40020000
 80007f8:	40026440 	.word	0x40026440

080007fc <NMI_Handler>:
 80007fc:	e7fe      	b.n	80007fc <NMI_Handler>
 80007fe:	bf00      	nop

08000800 <HardFault_Handler>:
 8000800:	e7fe      	b.n	8000800 <HardFault_Handler>
 8000802:	bf00      	nop

08000804 <MemManage_Handler>:
 8000804:	e7fe      	b.n	8000804 <MemManage_Handler>
 8000806:	bf00      	nop

08000808 <BusFault_Handler>:
 8000808:	e7fe      	b.n	8000808 <BusFault_Handler>
 800080a:	bf00      	nop

0800080c <UsageFault_Handler>:
 800080c:	e7fe      	b.n	800080c <UsageFault_Handler>
 800080e:	bf00      	nop

08000810 <SVC_Handler>:
 8000810:	4770      	bx	lr
 8000812:	bf00      	nop

08000814 <DebugMon_Handler>:
 8000814:	4770      	bx	lr
 8000816:	bf00      	nop

08000818 <PendSV_Handler>:
 8000818:	4770      	bx	lr
 800081a:	bf00      	nop

0800081c <SysTick_Handler>:
 800081c:	f001 be6a 	b.w	80024f4 <HAL_IncTick>

08000820 <SPI1_IRQHandler>:
 8000820:	4801      	ldr	r0, [pc, #4]	; (8000828 <SPI1_IRQHandler+0x8>)
 8000822:	f002 bf45 	b.w	80036b0 <HAL_SPI_IRQHandler>
 8000826:	bf00      	nop
 8000828:	200000a4 	.word	0x200000a4

0800082c <DMA2_Stream2_IRQHandler>:
 800082c:	4801      	ldr	r0, [pc, #4]	; (8000834 <DMA2_Stream2_IRQHandler+0x8>)
 800082e:	f001 bfe3 	b.w	80027f8 <HAL_DMA_IRQHandler>
 8000832:	bf00      	nop
 8000834:	200000fc 	.word	0x200000fc

08000838 <_sbrk>:
 8000838:	490c      	ldr	r1, [pc, #48]	; (800086c <_sbrk+0x34>)
 800083a:	4a0d      	ldr	r2, [pc, #52]	; (8000870 <_sbrk+0x38>)
 800083c:	680b      	ldr	r3, [r1, #0]
 800083e:	b510      	push	{r4, lr}
 8000840:	4c0c      	ldr	r4, [pc, #48]	; (8000874 <_sbrk+0x3c>)
 8000842:	1b12      	subs	r2, r2, r4
 8000844:	b12b      	cbz	r3, 8000852 <_sbrk+0x1a>
 8000846:	4418      	add	r0, r3
 8000848:	4290      	cmp	r0, r2
 800084a:	d807      	bhi.n	800085c <_sbrk+0x24>
 800084c:	6008      	str	r0, [r1, #0]
 800084e:	4618      	mov	r0, r3
 8000850:	bd10      	pop	{r4, pc}
 8000852:	4b09      	ldr	r3, [pc, #36]	; (8000878 <_sbrk+0x40>)
 8000854:	600b      	str	r3, [r1, #0]
 8000856:	4418      	add	r0, r3
 8000858:	4290      	cmp	r0, r2
 800085a:	d9f7      	bls.n	800084c <_sbrk+0x14>
 800085c:	f002 ffcc 	bl	80037f8 <__errno>
 8000860:	230c      	movs	r3, #12
 8000862:	6003      	str	r3, [r0, #0]
 8000864:	f04f 33ff 	mov.w	r3, #4294967295
 8000868:	4618      	mov	r0, r3
 800086a:	bd10      	pop	{r4, pc}
 800086c:	20000094 	.word	0x20000094
 8000870:	20020000 	.word	0x20020000
 8000874:	00000400 	.word	0x00000400
 8000878:	20000170 	.word	0x20000170

0800087c <SystemInit>:
 800087c:	4a03      	ldr	r2, [pc, #12]	; (800088c <SystemInit+0x10>)
 800087e:	f8d2 3088 	ldr.w	r3, [r2, #136]	; 0x88
 8000882:	f443 0370 	orr.w	r3, r3, #15728640	; 0xf00000
 8000886:	f8c2 3088 	str.w	r3, [r2, #136]	; 0x88
 800088a:	4770      	bx	lr
 800088c:	e000ed00 	.word	0xe000ed00

08000890 <Reset_Handler>:
 8000890:	f8df d034 	ldr.w	sp, [pc, #52]	; 80008c8 <LoopFillZerobss+0x12>
 8000894:	480d      	ldr	r0, [pc, #52]	; (80008cc <LoopFillZerobss+0x16>)
 8000896:	490e      	ldr	r1, [pc, #56]	; (80008d0 <LoopFillZerobss+0x1a>)
 8000898:	4a0e      	ldr	r2, [pc, #56]	; (80008d4 <LoopFillZerobss+0x1e>)
 800089a:	2300      	movs	r3, #0
 800089c:	e002      	b.n	80008a4 <LoopCopyDataInit>

0800089e <CopyDataInit>:
 800089e:	58d4      	ldr	r4, [r2, r3]
 80008a0:	50c4      	str	r4, [r0, r3]
 80008a2:	3304      	adds	r3, #4

080008a4 <LoopCopyDataInit>:
 80008a4:	18c4      	adds	r4, r0, r3
 80008a6:	428c      	cmp	r4, r1
 80008a8:	d3f9      	bcc.n	800089e <CopyDataInit>
 80008aa:	4a0b      	ldr	r2, [pc, #44]	; (80008d8 <LoopFillZerobss+0x22>)
 80008ac:	4c0b      	ldr	r4, [pc, #44]	; (80008dc <LoopFillZerobss+0x26>)
 80008ae:	2300      	movs	r3, #0
 80008b0:	e001      	b.n	80008b6 <LoopFillZerobss>

080008b2 <FillZerobss>:
 80008b2:	6013      	str	r3, [r2, #0]
 80008b4:	3204      	adds	r2, #4

080008b6 <LoopFillZerobss>:
 80008b6:	42a2      	cmp	r2, r4
 80008b8:	d3fb      	bcc.n	80008b2 <FillZerobss>
 80008ba:	f7ff ffdf 	bl	800087c <SystemInit>
 80008be:	f002 ffa1 	bl	8003804 <__libc_init_array>
 80008c2:	f7ff fead 	bl	8000620 <main>
 80008c6:	4770      	bx	lr
 80008c8:	20020000 	.word	0x20020000
 80008cc:	20000000 	.word	0x20000000
 80008d0:	20000078 	.word	0x20000078
 80008d4:	0800f5cc 	.word	0x0800f5cc
 80008d8:	20000078 	.word	0x20000078
 80008dc:	20000170 	.word	0x20000170

080008e0 <ADC_IRQHandler>:
 80008e0:	e7fe      	b.n	80008e0 <ADC_IRQHandler>
	...

080008e4 <ST7789_SetAddressWindow>:
 80008e4:	e92d 4ff0 	stmdb	sp!, {r4, r5, r6, r7, r8, r9, sl, fp, lr}
 80008e8:	4c36      	ldr	r4, [pc, #216]	; (80009c4 <ST7789_SetAddressWindow+0xe0>)
 80008ea:	f8df a0dc 	ldr.w	sl, [pc, #220]	; 80009c8 <ST7789_SetAddressWindow+0xe4>
 80008ee:	b083      	sub	sp, #12
 80008f0:	f04f 0c2a 	mov.w	ip, #42	; 0x2a
 80008f4:	f04f 6980 	mov.w	r9, #67108864	; 0x4000000
 80008f8:	f44f 2b80 	mov.w	fp, #262144	; 0x40000
 80008fc:	f88d c004 	strb.w	ip, [sp, #4]
 8000900:	4680      	mov	r8, r0
 8000902:	f8c4 9018 	str.w	r9, [r4, #24]
 8000906:	4617      	mov	r7, r2
 8000908:	460e      	mov	r6, r1
 800090a:	461d      	mov	r5, r3
 800090c:	a901      	add	r1, sp, #4
 800090e:	4650      	mov	r0, sl
 8000910:	f8c4 b018 	str.w	fp, [r4, #24]
 8000914:	f04f 33ff 	mov.w	r3, #4294967295
 8000918:	2201      	movs	r2, #1
 800091a:	f002 fcc7 	bl	80032ac <HAL_SPI_Transmit>
 800091e:	3728      	adds	r7, #40	; 0x28
 8000920:	f108 0028 	add.w	r0, r8, #40	; 0x28
 8000924:	ba7b      	rev16	r3, r7
 8000926:	f04f 0804 	mov.w	r8, #4
 800092a:	f44f 6780 	mov.w	r7, #1024	; 0x400
 800092e:	ba40      	rev16	r0, r0
 8000930:	61a7      	str	r7, [r4, #24]
 8000932:	4642      	mov	r2, r8
 8000934:	f8ad 0004 	strh.w	r0, [sp, #4]
 8000938:	f8ad 3006 	strh.w	r3, [sp, #6]
 800093c:	eb0d 0108 	add.w	r1, sp, r8
 8000940:	f8c4 9018 	str.w	r9, [r4, #24]
 8000944:	4650      	mov	r0, sl
 8000946:	f8c4 8018 	str.w	r8, [r4, #24]
 800094a:	f04f 33ff 	mov.w	r3, #4294967295
 800094e:	f002 fcad 	bl	80032ac <HAL_SPI_Transmit>
 8000952:	3635      	adds	r6, #53	; 0x35
 8000954:	232b      	movs	r3, #43	; 0x2b
 8000956:	3535      	adds	r5, #53	; 0x35
 8000958:	61a7      	str	r7, [r4, #24]
 800095a:	eb0d 0108 	add.w	r1, sp, r8
 800095e:	f88d 3004 	strb.w	r3, [sp, #4]
 8000962:	4650      	mov	r0, sl
 8000964:	f8c4 9018 	str.w	r9, [r4, #24]
 8000968:	f04f 33ff 	mov.w	r3, #4294967295
 800096c:	f8c4 b018 	str.w	fp, [r4, #24]
 8000970:	2201      	movs	r2, #1
 8000972:	ba76      	rev16	r6, r6
 8000974:	ba6d      	rev16	r5, r5
 8000976:	f002 fc99 	bl	80032ac <HAL_SPI_Transmit>
 800097a:	61a7      	str	r7, [r4, #24]
 800097c:	4642      	mov	r2, r8
 800097e:	f8ad 6004 	strh.w	r6, [sp, #4]
 8000982:	f8ad 5006 	strh.w	r5, [sp, #6]
 8000986:	eb0d 0108 	add.w	r1, sp, r8
 800098a:	f8c4 9018 	str.w	r9, [r4, #24]
 800098e:	4650      	mov	r0, sl
 8000990:	f8c4 8018 	str.w	r8, [r4, #24]
 8000994:	f04f 33ff 	mov.w	r3, #4294967295
 8000998:	f002 fc88 	bl	80032ac <HAL_SPI_Transmit>
 800099c:	232c      	movs	r3, #44	; 0x2c
 800099e:	61a7      	str	r7, [r4, #24]
 80009a0:	eb0d 0108 	add.w	r1, sp, r8
 80009a4:	f88d 3004 	strb.w	r3, [sp, #4]
 80009a8:	4650      	mov	r0, sl
 80009aa:	f8c4 9018 	str.w	r9, [r4, #24]
 80009ae:	f04f 33ff 	mov.w	r3, #4294967295
 80009b2:	2201      	movs	r2, #1
 80009b4:	f8c4 b018 	str.w	fp, [r4, #24]
 80009b8:	f002 fc78 	bl	80032ac <HAL_SPI_Transmit>
 80009bc:	61a7      	str	r7, [r4, #24]
 80009be:	b003      	add	sp, #12
 80009c0:	e8bd 8ff0 	ldmia.w	sp!, {r4, r5, r6, r7, r8, r9, sl, fp, pc}
 80009c4:	40020400 	.word	0x40020400
 80009c8:	200000a4 	.word	0x200000a4

080009cc <ST7789_DrawLine.part.0>:
 80009cc:	e92d 4ff0 	stmdb	sp!, {r4, r5, r6, r7, r8, r9, sl, fp, lr}
 80009d0:	461e      	mov	r6, r3
 80009d2:	1a5b      	subs	r3, r3, r1
 80009d4:	2b00      	cmp	r3, #0
 80009d6:	4615      	mov	r5, r2
 80009d8:	eba2 0200 	sub.w	r2, r2, r0
 80009dc:	bfb8      	it	lt
 80009de:	425b      	neglt	r3, r3
 80009e0:	2a00      	cmp	r2, #0
 80009e2:	b085      	sub	sp, #20
 80009e4:	bfb8      	it	lt
 80009e6:	4252      	neglt	r2, r2
 80009e8:	4293      	cmp	r3, r2
 80009ea:	f8bd c038 	ldrh.w	ip, [sp, #56]	; 0x38
 80009ee:	4607      	mov	r7, r0
 80009f0:	dd58      	ble.n	8000aa4 <ST7789_DrawLine.part.0+0xd8>
 80009f2:	46a8      	mov	r8, r5
 80009f4:	460f      	mov	r7, r1
 80009f6:	46ae      	mov	lr, r5
 80009f8:	4635      	mov	r5, r6
 80009fa:	42af      	cmp	r7, r5
 80009fc:	4646      	mov	r6, r8
 80009fe:	4601      	mov	r1, r0
 8000a00:	4690      	mov	r8, r2
 8000a02:	d954      	bls.n	8000aae <ST7789_DrawLine.part.0+0xe2>
 8000a04:	eba7 0905 	sub.w	r9, r7, r5
 8000a08:	f3c9 34c0 	ubfx	r4, r9, #15, #1
 8000a0c:	eba0 000e 	sub.w	r0, r0, lr
 8000a10:	fa04 f489 	sxtah	r4, r4, r9
 8000a14:	f64f 7aff 	movw	sl, #65535	; 0xffff
 8000a18:	ea80 78e0 	eor.w	r8, r0, r0, asr #31
 8000a1c:	eba8 78e0 	sub.w	r8, r8, r0, asr #31
 8000a20:	1064      	asrs	r4, r4, #1
 8000a22:	fa1f f989 	uxth.w	r9, r9
 8000a26:	42b1      	cmp	r1, r6
 8000a28:	bf88      	it	hi
 8000a2a:	f04f 0a01 	movhi.w	sl, #1
 8000a2e:	4293      	cmp	r3, r2
 8000a30:	fa1f f888 	uxth.w	r8, r8
 8000a34:	dc51      	bgt.n	8000ada <ST7789_DrawLine.part.0+0x10e>
 8000a36:	fa9c f39c 	rev16.w	r3, ip
 8000a3a:	f8df b120 	ldr.w	fp, [pc, #288]	; 8000b5c <ST7789_DrawLine.part.0+0x190>
 8000a3e:	f8ad 3006 	strh.w	r3, [sp, #6]
 8000a42:	2def      	cmp	r5, #239	; 0xef
 8000a44:	d81d      	bhi.n	8000a82 <ST7789_DrawLine.part.0+0xb6>
 8000a46:	2e86      	cmp	r6, #134	; 0x86
 8000a48:	4633      	mov	r3, r6
 8000a4a:	462a      	mov	r2, r5
 8000a4c:	4631      	mov	r1, r6
 8000a4e:	4628      	mov	r0, r5
 8000a50:	d817      	bhi.n	8000a82 <ST7789_DrawLine.part.0+0xb6>
 8000a52:	f8bd c006 	ldrh.w	ip, [sp, #6]
 8000a56:	f8ad c00c 	strh.w	ip, [sp, #12]
 8000a5a:	f7ff ff43 	bl	80008e4 <ST7789_SetAddressWindow>
 8000a5e:	2304      	movs	r3, #4
 8000a60:	f04f 6280 	mov.w	r2, #67108864	; 0x4000000
 8000a64:	f8cb 3018 	str.w	r3, [fp, #24]
 8000a68:	483b      	ldr	r0, [pc, #236]	; (8000b58 <ST7789_DrawLine.part.0+0x18c>)
 8000a6a:	f8cb 2018 	str.w	r2, [fp, #24]
 8000a6e:	f04f 33ff 	mov.w	r3, #4294967295
 8000a72:	2202      	movs	r2, #2
 8000a74:	a903      	add	r1, sp, #12
 8000a76:	f002 fc19 	bl	80032ac <HAL_SPI_Transmit>
 8000a7a:	f44f 6380 	mov.w	r3, #1024	; 0x400
 8000a7e:	f8cb 3018 	str.w	r3, [fp, #24]
 8000a82:	eba4 0308 	sub.w	r3, r4, r8
 8000a86:	b21c      	sxth	r4, r3
 8000a88:	3501      	adds	r5, #1
 8000a8a:	2c00      	cmp	r4, #0
 8000a8c:	b2ad      	uxth	r5, r5
 8000a8e:	b29b      	uxth	r3, r3
 8000a90:	da03      	bge.n	8000a9a <ST7789_DrawLine.part.0+0xce>
 8000a92:	444b      	add	r3, r9
 8000a94:	4456      	add	r6, sl
 8000a96:	b21c      	sxth	r4, r3
 8000a98:	b2b6      	uxth	r6, r6
 8000a9a:	42bd      	cmp	r5, r7
 8000a9c:	d9d1      	bls.n	8000a42 <ST7789_DrawLine.part.0+0x76>
 8000a9e:	b005      	add	sp, #20
 8000aa0:	e8bd 8ff0 	ldmia.w	sp!, {r4, r5, r6, r7, r8, r9, sl, fp, pc}
 8000aa4:	42af      	cmp	r7, r5
 8000aa6:	46b6      	mov	lr, r6
 8000aa8:	4608      	mov	r0, r1
 8000aaa:	4698      	mov	r8, r3
 8000aac:	d8aa      	bhi.n	8000a04 <ST7789_DrawLine.part.0+0x38>
 8000aae:	eba5 0907 	sub.w	r9, r5, r7
 8000ab2:	f3c9 34c0 	ubfx	r4, r9, #15, #1
 8000ab6:	fa04 f489 	sxtah	r4, r4, r9
 8000aba:	42b1      	cmp	r1, r6
 8000abc:	ea4f 0464 	mov.w	r4, r4, asr #1
 8000ac0:	fa1f f989 	uxth.w	r9, r9
 8000ac4:	d240      	bcs.n	8000b48 <ST7789_DrawLine.part.0+0x17c>
 8000ac6:	4628      	mov	r0, r5
 8000ac8:	4293      	cmp	r3, r2
 8000aca:	463d      	mov	r5, r7
 8000acc:	460e      	mov	r6, r1
 8000ace:	f04f 0a01 	mov.w	sl, #1
 8000ad2:	4607      	mov	r7, r0
 8000ad4:	fa1f f888 	uxth.w	r8, r8
 8000ad8:	ddad      	ble.n	8000a36 <ST7789_DrawLine.part.0+0x6a>
 8000ada:	fa9c f39c 	rev16.w	r3, ip
 8000ade:	f8df b07c 	ldr.w	fp, [pc, #124]	; 8000b5c <ST7789_DrawLine.part.0+0x190>
 8000ae2:	f8ad 3006 	strh.w	r3, [sp, #6]
 8000ae6:	2eef      	cmp	r6, #239	; 0xef
 8000ae8:	d81d      	bhi.n	8000b26 <ST7789_DrawLine.part.0+0x15a>
 8000aea:	2d86      	cmp	r5, #134	; 0x86
 8000aec:	462b      	mov	r3, r5
 8000aee:	4632      	mov	r2, r6
 8000af0:	4629      	mov	r1, r5
 8000af2:	4630      	mov	r0, r6
 8000af4:	d817      	bhi.n	8000b26 <ST7789_DrawLine.part.0+0x15a>
 8000af6:	f8bd c006 	ldrh.w	ip, [sp, #6]
 8000afa:	f8ad c00c 	strh.w	ip, [sp, #12]
 8000afe:	f7ff fef1 	bl	80008e4 <ST7789_SetAddressWindow>
 8000b02:	2304      	movs	r3, #4
 8000b04:	f04f 6280 	mov.w	r2, #67108864	; 0x4000000
 8000b08:	f8cb 3018 	str.w	r3, [fp, #24]
 8000b0c:	4812      	ldr	r0, [pc, #72]	; (8000b58 <ST7789_DrawLine.part.0+0x18c>)
 8000b0e:	f8cb 2018 	str.w	r2, [fp, #24]
 8000b12:	f04f 33ff 	mov.w	r3, #4294967295
 8000b16:	2202      	movs	r2, #2
 8000b18:	a903      	add	r1, sp, #12
 8000b1a:	f002 fbc7 	bl	80032ac <HAL_SPI_Transmit>
 8000b1e:	f44f 6380 	mov.w	r3, #1024	; 0x400
 8000b22:	f8cb 3018 	str.w	r3, [fp, #24]
 8000b26:	eba4 0308 	sub.w	r3, r4, r8
 8000b2a:	b21c      	sxth	r4, r3
 8000b2c:	3501      	adds	r5, #1
 8000b2e:	2c00      	cmp	r4, #0
 8000b30:	b2ad      	uxth	r5, r5
 8000b32:	b29b      	uxth	r3, r3
 8000b34:	da03      	bge.n	8000b3e <ST7789_DrawLine.part.0+0x172>
 8000b36:	444b      	add	r3, r9
 8000b38:	4456      	add	r6, sl
 8000b3a:	b21c      	sxth	r4, r3
 8000b3c:	b2b6      	uxth	r6, r6
 8000b3e:	42bd      	cmp	r5, r7
 8000b40:	d9d1      	bls.n	8000ae6 <ST7789_DrawLine.part.0+0x11a>
 8000b42:	b005      	add	sp, #20
 8000b44:	e8bd 8ff0 	ldmia.w	sp!, {r4, r5, r6, r7, r8, r9, sl, fp, pc}
 8000b48:	4638      	mov	r0, r7
 8000b4a:	460e      	mov	r6, r1
 8000b4c:	462f      	mov	r7, r5
 8000b4e:	f64f 7aff 	movw	sl, #65535	; 0xffff
 8000b52:	4605      	mov	r5, r0
 8000b54:	e76b      	b.n	8000a2e <ST7789_DrawLine.part.0+0x62>
 8000b56:	bf00      	nop
 8000b58:	200000a4 	.word	0x200000a4
 8000b5c:	40020400 	.word	0x40020400

08000b60 <ST7789_Fill.constprop.0>:
 8000b60:	b530      	push	{r4, r5, lr}
 8000b62:	2100      	movs	r1, #0
 8000b64:	b083      	sub	sp, #12
 8000b66:	4c20      	ldr	r4, [pc, #128]	; (8000be8 <ST7789_Fill.constprop.0+0x88>)
 8000b68:	4605      	mov	r5, r0
 8000b6a:	2386      	movs	r3, #134	; 0x86
 8000b6c:	4608      	mov	r0, r1
 8000b6e:	22ef      	movs	r2, #239	; 0xef
 8000b70:	f8ad 5006 	strh.w	r5, [sp, #6]
 8000b74:	f7ff feb6 	bl	80008e4 <ST7789_SetAddressWindow>
 8000b78:	f44f 6500 	mov.w	r5, #2048	; 0x800
 8000b7c:	4620      	mov	r0, r4
 8000b7e:	60e5      	str	r5, [r4, #12]
 8000b80:	f002 fb34 	bl	80031ec <HAL_SPI_Init>
 8000b84:	6ca0      	ldr	r0, [r4, #72]	; 0x48
 8000b86:	6802      	ldr	r2, [r0, #0]
 8000b88:	6813      	ldr	r3, [r2, #0]
 8000b8a:	f023 0301 	bic.w	r3, r3, #1
 8000b8e:	6013      	str	r3, [r2, #0]
 8000b90:	2100      	movs	r1, #0
 8000b92:	f44f 5300 	mov.w	r3, #8192	; 0x2000
 8000b96:	e9c0 1504 	strd	r1, r5, [r0, #16]
 8000b9a:	6183      	str	r3, [r0, #24]
 8000b9c:	f001 fd42 	bl	8002624 <HAL_DMA_Init>
 8000ba0:	4b12      	ldr	r3, [pc, #72]	; (8000bec <ST7789_Fill.constprop.0+0x8c>)
 8000ba2:	f04f 6180 	mov.w	r1, #67108864	; 0x4000000
 8000ba6:	2204      	movs	r2, #4
 8000ba8:	6199      	str	r1, [r3, #24]
 8000baa:	4620      	mov	r0, r4
 8000bac:	619a      	str	r2, [r3, #24]
 8000bae:	f10d 0106 	add.w	r1, sp, #6
 8000bb2:	f647 6290 	movw	r2, #32400	; 0x7e90
 8000bb6:	f002 fc9d 	bl	80034f4 <HAL_SPI_Transmit_DMA>
 8000bba:	6ca3      	ldr	r3, [r4, #72]	; 0x48
 8000bbc:	f893 3035 	ldrb.w	r3, [r3, #53]	; 0x35
 8000bc0:	2b01      	cmp	r3, #1
 8000bc2:	d005      	beq.n	8000bd0 <ST7789_Fill.constprop.0+0x70>
 8000bc4:	bf00      	nop
 8000bc6:	6ca3      	ldr	r3, [r4, #72]	; 0x48
 8000bc8:	f893 3035 	ldrb.w	r3, [r3, #53]	; 0x35
 8000bcc:	2b01      	cmp	r3, #1
 8000bce:	d1f9      	bne.n	8000bc4 <ST7789_Fill.constprop.0+0x64>
 8000bd0:	4b06      	ldr	r3, [pc, #24]	; (8000bec <ST7789_Fill.constprop.0+0x8c>)
 8000bd2:	4805      	ldr	r0, [pc, #20]	; (8000be8 <ST7789_Fill.constprop.0+0x88>)
 8000bd4:	f44f 6280 	mov.w	r2, #1024	; 0x400
 8000bd8:	619a      	str	r2, [r3, #24]
 8000bda:	2300      	movs	r3, #0
 8000bdc:	60e3      	str	r3, [r4, #12]
 8000bde:	f002 fb05 	bl	80031ec <HAL_SPI_Init>
 8000be2:	b003      	add	sp, #12
 8000be4:	bd30      	pop	{r4, r5, pc}
 8000be6:	bf00      	nop
 8000be8:	200000a4 	.word	0x200000a4
 8000bec:	40020400 	.word	0x40020400

08000bf0 <ST7789_Init>:
 8000bf0:	e92d 47f0 	stmdb	sp!, {r4, r5, r6, r7, r8, r9, sl, lr}
 8000bf4:	4dda      	ldr	r5, [pc, #872]	; (8000f60 <ST7789_Init+0x370>)
 8000bf6:	4cdb      	ldr	r4, [pc, #876]	; (8000f64 <ST7789_Init+0x374>)
 8000bf8:	b084      	sub	sp, #16
 8000bfa:	2300      	movs	r3, #0
 8000bfc:	4628      	mov	r0, r5
 8000bfe:	f44f 6680 	mov.w	r6, #1024	; 0x400
 8000c02:	60eb      	str	r3, [r5, #12]
 8000c04:	f002 faf2 	bl	80031ec <HAL_SPI_Init>
 8000c08:	f44f 3300 	mov.w	r3, #131072	; 0x20000
 8000c0c:	61a6      	str	r6, [r4, #24]
 8000c0e:	2001      	movs	r0, #1
 8000c10:	61a3      	str	r3, [r4, #24]
 8000c12:	f001 fc81 	bl	8002518 <HAL_Delay>
 8000c16:	2302      	movs	r3, #2
 8000c18:	61a3      	str	r3, [r4, #24]
 8000c1a:	2078      	movs	r0, #120	; 0x78
 8000c1c:	f04f 6780 	mov.w	r7, #67108864	; 0x4000000
 8000c20:	f44f 2980 	mov.w	r9, #262144	; 0x40000
 8000c24:	f001 fc78 	bl	8002518 <HAL_Delay>
 8000c28:	233a      	movs	r3, #58	; 0x3a
 8000c2a:	f88d 3000 	strb.w	r3, [sp]
 8000c2e:	4669      	mov	r1, sp
 8000c30:	61a7      	str	r7, [r4, #24]
 8000c32:	4628      	mov	r0, r5
 8000c34:	f8c4 9018 	str.w	r9, [r4, #24]
 8000c38:	f04f 33ff 	mov.w	r3, #4294967295
 8000c3c:	2201      	movs	r2, #1
 8000c3e:	f04f 0a04 	mov.w	sl, #4
 8000c42:	f002 fb33 	bl	80032ac <HAL_SPI_Transmit>
 8000c46:	2355      	movs	r3, #85	; 0x55
 8000c48:	61a6      	str	r6, [r4, #24]
 8000c4a:	4669      	mov	r1, sp
 8000c4c:	f88d 3000 	strb.w	r3, [sp]
 8000c50:	4628      	mov	r0, r5
 8000c52:	61a7      	str	r7, [r4, #24]
 8000c54:	f04f 33ff 	mov.w	r3, #4294967295
 8000c58:	f8c4 a018 	str.w	sl, [r4, #24]
 8000c5c:	2201      	movs	r2, #1
 8000c5e:	f002 fb25 	bl	80032ac <HAL_SPI_Transmit>
 8000c62:	23b2      	movs	r3, #178	; 0xb2
 8000c64:	61a6      	str	r6, [r4, #24]
 8000c66:	4669      	mov	r1, sp
 8000c68:	f88d 3000 	strb.w	r3, [sp]
 8000c6c:	4628      	mov	r0, r5
 8000c6e:	61a7      	str	r7, [r4, #24]
 8000c70:	f04f 33ff 	mov.w	r3, #4294967295
 8000c74:	f8c4 9018 	str.w	r9, [r4, #24]
 8000c78:	2201      	movs	r2, #1
 8000c7a:	f002 fb17 	bl	80032ac <HAL_SPI_Transmit>
 8000c7e:	4bba      	ldr	r3, [pc, #744]	; (8000f68 <ST7789_Init+0x378>)
 8000c80:	61a6      	str	r6, [r4, #24]
 8000c82:	e893 0003 	ldmia.w	r3, {r0, r1}
 8000c86:	2205      	movs	r2, #5
 8000c88:	9000      	str	r0, [sp, #0]
 8000c8a:	f88d 1004 	strb.w	r1, [sp, #4]
 8000c8e:	f04f 33ff 	mov.w	r3, #4294967295
 8000c92:	61a7      	str	r7, [r4, #24]
 8000c94:	4669      	mov	r1, sp
 8000c96:	4628      	mov	r0, r5
 8000c98:	f8c4 a018 	str.w	sl, [r4, #24]
 8000c9c:	f002 fb06 	bl	80032ac <HAL_SPI_Transmit>
 8000ca0:	2336      	movs	r3, #54	; 0x36
 8000ca2:	61a6      	str	r6, [r4, #24]
 8000ca4:	4669      	mov	r1, sp
 8000ca6:	f88d 3000 	strb.w	r3, [sp]
 8000caa:	4628      	mov	r0, r5
 8000cac:	61a7      	str	r7, [r4, #24]
 8000cae:	f04f 33ff 	mov.w	r3, #4294967295
 8000cb2:	f8c4 9018 	str.w	r9, [r4, #24]
 8000cb6:	2201      	movs	r2, #1
 8000cb8:	f002 faf8 	bl	80032ac <HAL_SPI_Transmit>
 8000cbc:	2360      	movs	r3, #96	; 0x60
 8000cbe:	61a6      	str	r6, [r4, #24]
 8000cc0:	4669      	mov	r1, sp
 8000cc2:	f88d 3000 	strb.w	r3, [sp]
 8000cc6:	4628      	mov	r0, r5
 8000cc8:	61a7      	str	r7, [r4, #24]
 8000cca:	f04f 33ff 	mov.w	r3, #4294967295
 8000cce:	f8c4 a018 	str.w	sl, [r4, #24]
 8000cd2:	2201      	movs	r2, #1
 8000cd4:	f002 faea 	bl	80032ac <HAL_SPI_Transmit>
 8000cd8:	23b7      	movs	r3, #183	; 0xb7
 8000cda:	61a6      	str	r6, [r4, #24]
 8000cdc:	4669      	mov	r1, sp
 8000cde:	f88d 3000 	strb.w	r3, [sp]
 8000ce2:	4628      	mov	r0, r5
 8000ce4:	61a7      	str	r7, [r4, #24]
 8000ce6:	f04f 33ff 	mov.w	r3, #4294967295
 8000cea:	f8c4 9018 	str.w	r9, [r4, #24]
 8000cee:	2201      	movs	r2, #1
 8000cf0:	f002 fadc 	bl	80032ac <HAL_SPI_Transmit>
 8000cf4:	2335      	movs	r3, #53	; 0x35
 8000cf6:	61a6      	str	r6, [r4, #24]
 8000cf8:	4669      	mov	r1, sp
 8000cfa:	f88d 3000 	strb.w	r3, [sp]
 8000cfe:	4628      	mov	r0, r5
 8000d00:	61a7      	str	r7, [r4, #24]
 8000d02:	f04f 33ff 	mov.w	r3, #4294967295
 8000d06:	f8c4 a018 	str.w	sl, [r4, #24]
 8000d0a:	2201      	movs	r2, #1
 8000d0c:	f002 face 	bl	80032ac <HAL_SPI_Transmit>
 8000d10:	23bb      	movs	r3, #187	; 0xbb
 8000d12:	61a6      	str	r6, [r4, #24]
 8000d14:	4669      	mov	r1, sp
 8000d16:	f88d 3000 	strb.w	r3, [sp]
 8000d1a:	4628      	mov	r0, r5
 8000d1c:	61a7      	str	r7, [r4, #24]
 8000d1e:	f04f 33ff 	mov.w	r3, #4294967295
 8000d22:	f8c4 9018 	str.w	r9, [r4, #24]
 8000d26:	2201      	movs	r2, #1
 8000d28:	f002 fac0 	bl	80032ac <HAL_SPI_Transmit>
 8000d2c:	2319      	movs	r3, #25
 8000d2e:	61a6      	str	r6, [r4, #24]
 8000d30:	4669      	mov	r1, sp
 8000d32:	f88d 3000 	strb.w	r3, [sp]
 8000d36:	4628      	mov	r0, r5
 8000d38:	61a7      	str	r7, [r4, #24]
 8000d3a:	f04f 33ff 	mov.w	r3, #4294967295
 8000d3e:	f8c4 a018 	str.w	sl, [r4, #24]
 8000d42:	2201      	movs	r2, #1
 8000d44:	f002 fab2 	bl	80032ac <HAL_SPI_Transmit>
 8000d48:	23c0      	movs	r3, #192	; 0xc0
 8000d4a:	61a6      	str	r6, [r4, #24]
 8000d4c:	4669      	mov	r1, sp
 8000d4e:	f88d 3000 	strb.w	r3, [sp]
 8000d52:	4628      	mov	r0, r5
 8000d54:	61a7      	str	r7, [r4, #24]
 8000d56:	f04f 33ff 	mov.w	r3, #4294967295
 8000d5a:	f8c4 9018 	str.w	r9, [r4, #24]
 8000d5e:	2201      	movs	r2, #1
 8000d60:	f002 faa4 	bl	80032ac <HAL_SPI_Transmit>
 8000d64:	232c      	movs	r3, #44	; 0x2c
 8000d66:	61a6      	str	r6, [r4, #24]
 8000d68:	4669      	mov	r1, sp
 8000d6a:	f88d 3000 	strb.w	r3, [sp]
 8000d6e:	4628      	mov	r0, r5
 8000d70:	61a7      	str	r7, [r4, #24]
 8000d72:	f04f 33ff 	mov.w	r3, #4294967295
 8000d76:	f8c4 a018 	str.w	sl, [r4, #24]
 8000d7a:	2201      	movs	r2, #1
 8000d7c:	f002 fa96 	bl	80032ac <HAL_SPI_Transmit>
 8000d80:	2201      	movs	r2, #1
 8000d82:	23c2      	movs	r3, #194	; 0xc2
 8000d84:	4690      	mov	r8, r2
 8000d86:	61a6      	str	r6, [r4, #24]
 8000d88:	4669      	mov	r1, sp
 8000d8a:	f88d 3000 	strb.w	r3, [sp]
 8000d8e:	4628      	mov	r0, r5
 8000d90:	61a7      	str	r7, [r4, #24]
 8000d92:	f04f 33ff 	mov.w	r3, #4294967295
 8000d96:	f8c4 9018 	str.w	r9, [r4, #24]
 8000d9a:	f002 fa87 	bl	80032ac <HAL_SPI_Transmit>
 8000d9e:	61a6      	str	r6, [r4, #24]
 8000da0:	4642      	mov	r2, r8
 8000da2:	f88d 8000 	strb.w	r8, [sp]
 8000da6:	4669      	mov	r1, sp
 8000da8:	61a7      	str	r7, [r4, #24]
 8000daa:	4628      	mov	r0, r5
 8000dac:	f8c4 a018 	str.w	sl, [r4, #24]
 8000db0:	f04f 33ff 	mov.w	r3, #4294967295
 8000db4:	f002 fa7a 	bl	80032ac <HAL_SPI_Transmit>
 8000db8:	23c3      	movs	r3, #195	; 0xc3
 8000dba:	61a6      	str	r6, [r4, #24]
 8000dbc:	4642      	mov	r2, r8
 8000dbe:	f88d 3000 	strb.w	r3, [sp]
 8000dc2:	4669      	mov	r1, sp
 8000dc4:	61a7      	str	r7, [r4, #24]
 8000dc6:	4628      	mov	r0, r5
 8000dc8:	f8c4 9018 	str.w	r9, [r4, #24]
 8000dcc:	f04f 33ff 	mov.w	r3, #4294967295
 8000dd0:	f002 fa6c 	bl	80032ac <HAL_SPI_Transmit>
 8000dd4:	2312      	movs	r3, #18
 8000dd6:	61a6      	str	r6, [r4, #24]
 8000dd8:	4642      	mov	r2, r8
 8000dda:	f88d 3000 	strb.w	r3, [sp]
 8000dde:	4669      	mov	r1, sp
 8000de0:	61a7      	str	r7, [r4, #24]
 8000de2:	4628      	mov	r0, r5
 8000de4:	f8c4 a018 	str.w	sl, [r4, #24]
 8000de8:	f04f 33ff 	mov.w	r3, #4294967295
 8000dec:	f002 fa5e 	bl	80032ac <HAL_SPI_Transmit>
 8000df0:	23c4      	movs	r3, #196	; 0xc4
 8000df2:	61a6      	str	r6, [r4, #24]
 8000df4:	4642      	mov	r2, r8
 8000df6:	f88d 3000 	strb.w	r3, [sp]
 8000dfa:	4669      	mov	r1, sp
 8000dfc:	61a7      	str	r7, [r4, #24]
 8000dfe:	4628      	mov	r0, r5
 8000e00:	f8c4 9018 	str.w	r9, [r4, #24]
 8000e04:	f04f 33ff 	mov.w	r3, #4294967295
 8000e08:	f002 fa50 	bl	80032ac <HAL_SPI_Transmit>
 8000e0c:	2320      	movs	r3, #32
 8000e0e:	61a6      	str	r6, [r4, #24]
 8000e10:	4642      	mov	r2, r8
 8000e12:	f88d 3000 	strb.w	r3, [sp]
 8000e16:	4669      	mov	r1, sp
 8000e18:	61a7      	str	r7, [r4, #24]
 8000e1a:	4628      	mov	r0, r5
 8000e1c:	f8c4 a018 	str.w	sl, [r4, #24]
 8000e20:	f04f 33ff 	mov.w	r3, #4294967295
 8000e24:	f002 fa42 	bl	80032ac <HAL_SPI_Transmit>
 8000e28:	23c6      	movs	r3, #198	; 0xc6
 8000e2a:	61a6      	str	r6, [r4, #24]
 8000e2c:	4642      	mov	r2, r8
 8000e2e:	f88d 3000 	strb.w	r3, [sp]
 8000e32:	4669      	mov	r1, sp
 8000e34:	61a7      	str	r7, [r4, #24]
 8000e36:	4628      	mov	r0, r5
 8000e38:	f8c4 9018 	str.w	r9, [r4, #24]
 8000e3c:	f04f 33ff 	mov.w	r3, #4294967295
 8000e40:	f002 fa34 	bl	80032ac <HAL_SPI_Transmit>
 8000e44:	61a6      	str	r6, [r4, #24]
 8000e46:	4642      	mov	r2, r8
 8000e48:	f88d 8000 	strb.w	r8, [sp]
 8000e4c:	4669      	mov	r1, sp
 8000e4e:	61a7      	str	r7, [r4, #24]
 8000e50:	4628      	mov	r0, r5
 8000e52:	f8c4 a018 	str.w	sl, [r4, #24]
 8000e56:	f04f 33ff 	mov.w	r3, #4294967295
 8000e5a:	f002 fa27 	bl	80032ac <HAL_SPI_Transmit>
 8000e5e:	23d0      	movs	r3, #208	; 0xd0
 8000e60:	61a6      	str	r6, [r4, #24]
 8000e62:	4642      	mov	r2, r8
 8000e64:	f88d 3000 	strb.w	r3, [sp]
 8000e68:	4669      	mov	r1, sp
 8000e6a:	61a7      	str	r7, [r4, #24]
 8000e6c:	4628      	mov	r0, r5
 8000e6e:	f8c4 9018 	str.w	r9, [r4, #24]
 8000e72:	f04f 33ff 	mov.w	r3, #4294967295
 8000e76:	f002 fa19 	bl	80032ac <HAL_SPI_Transmit>
 8000e7a:	23a4      	movs	r3, #164	; 0xa4
 8000e7c:	61a6      	str	r6, [r4, #24]
 8000e7e:	4642      	mov	r2, r8
 8000e80:	f88d 3000 	strb.w	r3, [sp]
 8000e84:	4669      	mov	r1, sp
 8000e86:	61a7      	str	r7, [r4, #24]
 8000e88:	4628      	mov	r0, r5
 8000e8a:	f8c4 a018 	str.w	sl, [r4, #24]
 8000e8e:	f04f 33ff 	mov.w	r3, #4294967295
 8000e92:	f002 fa0b 	bl	80032ac <HAL_SPI_Transmit>
 8000e96:	23a1      	movs	r3, #161	; 0xa1
 8000e98:	61a6      	str	r6, [r4, #24]
 8000e9a:	4642      	mov	r2, r8
 8000e9c:	f88d 3000 	strb.w	r3, [sp]
 8000ea0:	4669      	mov	r1, sp
 8000ea2:	61a7      	str	r7, [r4, #24]
 8000ea4:	4628      	mov	r0, r5
 8000ea6:	f8c4 a018 	str.w	sl, [r4, #24]
 8000eaa:	f04f 33ff 	mov.w	r3, #4294967295
 8000eae:	f002 f9fd 	bl	80032ac <HAL_SPI_Transmit>
 8000eb2:	23e0      	movs	r3, #224	; 0xe0
 8000eb4:	61a6      	str	r6, [r4, #24]
 8000eb6:	4642      	mov	r2, r8
 8000eb8:	f88d 3000 	strb.w	r3, [sp]
 8000ebc:	4669      	mov	r1, sp
 8000ebe:	61a7      	str	r7, [r4, #24]
 8000ec0:	4628      	mov	r0, r5
 8000ec2:	f8c4 9018 	str.w	r9, [r4, #24]
 8000ec6:	f04f 33ff 	mov.w	r3, #4294967295
 8000eca:	f002 f9ef 	bl	80032ac <HAL_SPI_Transmit>
 8000ece:	4b27      	ldr	r3, [pc, #156]	; (8000f6c <ST7789_Init+0x37c>)
 8000ed0:	61a6      	str	r6, [r4, #24]
 8000ed2:	cb0f      	ldmia	r3, {r0, r1, r2, r3}
 8000ed4:	46ec      	mov	ip, sp
 8000ed6:	e8ac 0007 	stmia.w	ip!, {r0, r1, r2}
 8000eda:	4669      	mov	r1, sp
 8000edc:	f8ac 3000 	strh.w	r3, [ip]
 8000ee0:	4628      	mov	r0, r5
 8000ee2:	61a7      	str	r7, [r4, #24]
 8000ee4:	f04f 33ff 	mov.w	r3, #4294967295
 8000ee8:	f8c4 a018 	str.w	sl, [r4, #24]
 8000eec:	220e      	movs	r2, #14
 8000eee:	f002 f9dd 	bl	80032ac <HAL_SPI_Transmit>
 8000ef2:	23e1      	movs	r3, #225	; 0xe1
 8000ef4:	61a6      	str	r6, [r4, #24]
 8000ef6:	4642      	mov	r2, r8
 8000ef8:	f88d 3000 	strb.w	r3, [sp]
 8000efc:	4669      	mov	r1, sp
 8000efe:	61a7      	str	r7, [r4, #24]
 8000f00:	4628      	mov	r0, r5
 8000f02:	f8c4 9018 	str.w	r9, [r4, #24]
 8000f06:	f04f 33ff 	mov.w	r3, #4294967295
 8000f0a:	f002 f9cf 	bl	80032ac <HAL_SPI_Transmit>
 8000f0e:	4b18      	ldr	r3, [pc, #96]	; (8000f70 <ST7789_Init+0x380>)
 8000f10:	61a6      	str	r6, [r4, #24]
 8000f12:	cb0f      	ldmia	r3, {r0, r1, r2, r3}
 8000f14:	46ec      	mov	ip, sp
 8000f16:	e8ac 0007 	stmia.w	ip!, {r0, r1, r2}
 8000f1a:	4669      	mov	r1, sp
 8000f1c:	f8ac 3000 	strh.w	r3, [ip]
 8000f20:	4628      	mov	r0, r5
 8000f22:	61a7      	str	r7, [r4, #24]
 8000f24:	f04f 33ff 	mov.w	r3, #4294967295
 8000f28:	f8c4 a018 	str.w	sl, [r4, #24]
 8000f2c:	220e      	movs	r2, #14
 8000f2e:	f002 f9bd 	bl	80032ac <HAL_SPI_Transmit>
 8000f32:	2321      	movs	r3, #33	; 0x21
 8000f34:	61a6      	str	r6, [r4, #24]
 8000f36:	4642      	mov	r2, r8
 8000f38:	f88d 3000 	strb.w	r3, [sp]
 8000f3c:	4669      	mov	r1, sp
 8000f3e:	61a7      	str	r7, [r4, #24]
 8000f40:	4628      	mov	r0, r5
 8000f42:	f8c4 9018 	str.w	r9, [r4, #24]
 8000f46:	f04f 33ff 	mov.w	r3, #4294967295
 8000f4a:	f002 f9af 	bl	80032ac <HAL_SPI_Transmit>
 8000f4e:	2311      	movs	r3, #17
 8000f50:	61a6      	str	r6, [r4, #24]
 8000f52:	4642      	mov	r2, r8
 8000f54:	f88d 3000 	strb.w	r3, [sp]
 8000f58:	4669      	mov	r1, sp
 8000f5a:	61a7      	str	r7, [r4, #24]
 8000f5c:	4628      	mov	r0, r5
 8000f5e:	e009      	b.n	8000f74 <ST7789_Init+0x384>
 8000f60:	200000a4 	.word	0x200000a4
 8000f64:	40020400 	.word	0x40020400
 8000f68:	080040c0 	.word	0x080040c0
 8000f6c:	0800f4e4 	.word	0x0800f4e4
 8000f70:	0800f4f4 	.word	0x0800f4f4
 8000f74:	f8c4 9018 	str.w	r9, [r4, #24]
 8000f78:	f04f 33ff 	mov.w	r3, #4294967295
 8000f7c:	f002 f996 	bl	80032ac <HAL_SPI_Transmit>
 8000f80:	2313      	movs	r3, #19
 8000f82:	61a6      	str	r6, [r4, #24]
 8000f84:	4642      	mov	r2, r8
 8000f86:	f88d 3000 	strb.w	r3, [sp]
 8000f8a:	4669      	mov	r1, sp
 8000f8c:	61a7      	str	r7, [r4, #24]
 8000f8e:	f04f 33ff 	mov.w	r3, #4294967295
 8000f92:	4628      	mov	r0, r5
 8000f94:	f8c4 9018 	str.w	r9, [r4, #24]
 8000f98:	f002 f988 	bl	80032ac <HAL_SPI_Transmit>
 8000f9c:	61a6      	str	r6, [r4, #24]
 8000f9e:	f44f 60fc 	mov.w	r0, #2016	; 0x7e0
 8000fa2:	f7ff fddd 	bl	8000b60 <ST7789_Fill.constprop.0>
 8000fa6:	2329      	movs	r3, #41	; 0x29
 8000fa8:	f88d 3000 	strb.w	r3, [sp]
 8000fac:	4642      	mov	r2, r8
 8000fae:	4669      	mov	r1, sp
 8000fb0:	f04f 33ff 	mov.w	r3, #4294967295
 8000fb4:	61a7      	str	r7, [r4, #24]
 8000fb6:	4628      	mov	r0, r5
 8000fb8:	f8c4 9018 	str.w	r9, [r4, #24]
 8000fbc:	f002 f976 	bl	80032ac <HAL_SPI_Transmit>
 8000fc0:	61a6      	str	r6, [r4, #24]
 8000fc2:	f44f 70fa 	mov.w	r0, #500	; 0x1f4
 8000fc6:	f001 faa7 	bl	8002518 <HAL_Delay>
 8000fca:	b004      	add	sp, #16
 8000fcc:	e8bd 87f0 	ldmia.w	sp!, {r4, r5, r6, r7, r8, r9, sl, pc}

08000fd0 <ST7789_Fill>:
 8000fd0:	2aef      	cmp	r2, #239	; 0xef
 8000fd2:	f200 80a1 	bhi.w	8001118 <ST7789_Fill+0x148>
 8000fd6:	e92d 4ff0 	stmdb	sp!, {r4, r5, r6, r7, r8, r9, sl, fp, lr}
 8000fda:	2b86      	cmp	r3, #134	; 0x86
 8000fdc:	b0a1      	sub	sp, #132	; 0x84
 8000fde:	d902      	bls.n	8000fe6 <ST7789_Fill+0x16>
 8000fe0:	b021      	add	sp, #132	; 0x84
 8000fe2:	e8bd 8ff0 	ldmia.w	sp!, {r4, r5, r6, r7, r8, r9, sl, fp, pc}
 8000fe6:	1a14      	subs	r4, r2, r0
 8000fe8:	1a5d      	subs	r5, r3, r1
 8000fea:	3401      	adds	r4, #1
 8000fec:	3501      	adds	r5, #1
 8000fee:	fb14 f405 	smulbb	r4, r4, r5
 8000ff2:	b2a4      	uxth	r4, r4
 8000ff4:	f7ff fc76 	bl	80008e4 <ST7789_SetAddressWindow>
 8000ff8:	2c0f      	cmp	r4, #15
 8000ffa:	4f81      	ldr	r7, [pc, #516]	; (8001200 <ST7789_Fill+0x230>)
 8000ffc:	f200 808d 	bhi.w	800111a <ST7789_Fill+0x14a>
 8001000:	f44f 6300 	mov.w	r3, #2048	; 0x800
 8001004:	4638      	mov	r0, r7
 8001006:	60fb      	str	r3, [r7, #12]
 8001008:	f002 f8f0 	bl	80031ec <HAL_SPI_Init>
 800100c:	b2e2      	uxtb	r2, r4
 800100e:	b3dc      	cbz	r4, 8001088 <ST7789_Fill+0xb8>
 8001010:	f8bd 30a8 	ldrh.w	r3, [sp, #168]	; 0xa8
 8001014:	f8ad 3000 	strh.w	r3, [sp]
 8001018:	2a01      	cmp	r2, #1
 800101a:	d035      	beq.n	8001088 <ST7789_Fill+0xb8>
 800101c:	2a02      	cmp	r2, #2
 800101e:	f8ad 3002 	strh.w	r3, [sp, #2]
 8001022:	d031      	beq.n	8001088 <ST7789_Fill+0xb8>
 8001024:	2a03      	cmp	r2, #3
 8001026:	f8ad 3004 	strh.w	r3, [sp, #4]
 800102a:	d02d      	beq.n	8001088 <ST7789_Fill+0xb8>
 800102c:	2a04      	cmp	r2, #4
 800102e:	f8ad 3006 	strh.w	r3, [sp, #6]
 8001032:	d029      	beq.n	8001088 <ST7789_Fill+0xb8>
 8001034:	2a05      	cmp	r2, #5
 8001036:	f8ad 3008 	strh.w	r3, [sp, #8]
 800103a:	d025      	beq.n	8001088 <ST7789_Fill+0xb8>
 800103c:	2a06      	cmp	r2, #6
 800103e:	f8ad 300a 	strh.w	r3, [sp, #10]
 8001042:	d021      	beq.n	8001088 <ST7789_Fill+0xb8>
 8001044:	2a07      	cmp	r2, #7
 8001046:	f8ad 300c 	strh.w	r3, [sp, #12]
 800104a:	d01d      	beq.n	8001088 <ST7789_Fill+0xb8>
 800104c:	2a08      	cmp	r2, #8
 800104e:	f8ad 300e 	strh.w	r3, [sp, #14]
 8001052:	d019      	beq.n	8001088 <ST7789_Fill+0xb8>
 8001054:	2a09      	cmp	r2, #9
 8001056:	f8ad 3010 	strh.w	r3, [sp, #16]
 800105a:	d015      	beq.n	8001088 <ST7789_Fill+0xb8>
 800105c:	2a0a      	cmp	r2, #10
 800105e:	f8ad 3012 	strh.w	r3, [sp, #18]
 8001062:	d011      	beq.n	8001088 <ST7789_Fill+0xb8>
 8001064:	2a0b      	cmp	r2, #11
 8001066:	f8ad 3014 	strh.w	r3, [sp, #20]
 800106a:	d00d      	beq.n	8001088 <ST7789_Fill+0xb8>
 800106c:	2a0c      	cmp	r2, #12
 800106e:	f8ad 3016 	strh.w	r3, [sp, #22]
 8001072:	d009      	beq.n	8001088 <ST7789_Fill+0xb8>
 8001074:	2a0d      	cmp	r2, #13
 8001076:	f8ad 3018 	strh.w	r3, [sp, #24]
 800107a:	d005      	beq.n	8001088 <ST7789_Fill+0xb8>
 800107c:	2a0f      	cmp	r2, #15
 800107e:	f8ad 301a 	strh.w	r3, [sp, #26]
 8001082:	bf08      	it	eq
 8001084:	f8ad 301c 	strheq.w	r3, [sp, #28]
 8001088:	f8df 9178 	ldr.w	r9, [pc, #376]	; 8001204 <ST7789_Fill+0x234>
 800108c:	f8df a170 	ldr.w	sl, [pc, #368]	; 8001200 <ST7789_Fill+0x230>
 8001090:	4625      	mov	r5, r4
 8001092:	2304      	movs	r3, #4
 8001094:	f04f 6280 	mov.w	r2, #67108864	; 0x4000000
 8001098:	f8c9 2018 	str.w	r2, [r9, #24]
 800109c:	f8c9 3018 	str.w	r3, [r9, #24]
 80010a0:	b344      	cbz	r4, 80010f4 <ST7789_Fill+0x124>
 80010a2:	4626      	mov	r6, r4
 80010a4:	46eb      	mov	fp, sp
 80010a6:	e009      	b.n	80010bc <ST7789_Fill+0xec>
 80010a8:	f04f 33ff 	mov.w	r3, #4294967295
 80010ac:	4659      	mov	r1, fp
 80010ae:	4650      	mov	r0, sl
 80010b0:	f002 f8fc 	bl	80032ac <HAL_SPI_Transmit>
 80010b4:	ebb6 0608 	subs.w	r6, r6, r8
 80010b8:	44c3      	add	fp, r8
 80010ba:	d01b      	beq.n	80010f4 <ST7789_Fill+0x124>
 80010bc:	f64f 78ff 	movw	r8, #65535	; 0xffff
 80010c0:	45b0      	cmp	r8, r6
 80010c2:	bf28      	it	cs
 80010c4:	46b0      	movcs	r8, r6
 80010c6:	2e0f      	cmp	r6, #15
 80010c8:	fa1f f288 	uxth.w	r2, r8
 80010cc:	d9ec      	bls.n	80010a8 <ST7789_Fill+0xd8>
 80010ce:	4659      	mov	r1, fp
 80010d0:	4650      	mov	r0, sl
 80010d2:	f002 fa0f 	bl	80034f4 <HAL_SPI_Transmit_DMA>
 80010d6:	6cbb      	ldr	r3, [r7, #72]	; 0x48
 80010d8:	f893 3035 	ldrb.w	r3, [r3, #53]	; 0x35
 80010dc:	2b01      	cmp	r3, #1
 80010de:	d0e9      	beq.n	80010b4 <ST7789_Fill+0xe4>
 80010e0:	bf00      	nop
 80010e2:	6cbb      	ldr	r3, [r7, #72]	; 0x48
 80010e4:	f893 3035 	ldrb.w	r3, [r3, #53]	; 0x35
 80010e8:	2b01      	cmp	r3, #1
 80010ea:	d1f9      	bne.n	80010e0 <ST7789_Fill+0x110>
 80010ec:	ebb6 0608 	subs.w	r6, r6, r8
 80010f0:	44c3      	add	fp, r8
 80010f2:	d1e3      	bne.n	80010bc <ST7789_Fill+0xec>
 80010f4:	1b2d      	subs	r5, r5, r4
 80010f6:	b2ad      	uxth	r5, r5
 80010f8:	f44f 6380 	mov.w	r3, #1024	; 0x400
 80010fc:	42ac      	cmp	r4, r5
 80010fe:	f8c9 3018 	str.w	r3, [r9, #24]
 8001102:	d9c6      	bls.n	8001092 <ST7789_Fill+0xc2>
 8001104:	2d00      	cmp	r5, #0
 8001106:	d14e      	bne.n	80011a6 <ST7789_Fill+0x1d6>
 8001108:	2300      	movs	r3, #0
 800110a:	483d      	ldr	r0, [pc, #244]	; (8001200 <ST7789_Fill+0x230>)
 800110c:	60fb      	str	r3, [r7, #12]
 800110e:	f002 f86d 	bl	80031ec <HAL_SPI_Init>
 8001112:	b021      	add	sp, #132	; 0x84
 8001114:	e8bd 8ff0 	ldmia.w	sp!, {r4, r5, r6, r7, r8, r9, sl, fp, pc}
 8001118:	4770      	bx	lr
 800111a:	f44f 6500 	mov.w	r5, #2048	; 0x800
 800111e:	4638      	mov	r0, r7
 8001120:	60fd      	str	r5, [r7, #12]
 8001122:	f002 f863 	bl	80031ec <HAL_SPI_Init>
 8001126:	6cb8      	ldr	r0, [r7, #72]	; 0x48
 8001128:	6802      	ldr	r2, [r0, #0]
 800112a:	6813      	ldr	r3, [r2, #0]
 800112c:	f023 0301 	bic.w	r3, r3, #1
 8001130:	6013      	str	r3, [r2, #0]
 8001132:	2100      	movs	r1, #0
 8001134:	f44f 5300 	mov.w	r3, #8192	; 0x2000
 8001138:	e9c0 1504 	strd	r1, r5, [r0, #16]
 800113c:	6183      	str	r3, [r0, #24]
 800113e:	f001 fa71 	bl	8002624 <HAL_DMA_Init>
 8001142:	4b30      	ldr	r3, [pc, #192]	; (8001204 <ST7789_Fill+0x234>)
 8001144:	f04f 6180 	mov.w	r1, #67108864	; 0x4000000
 8001148:	2204      	movs	r2, #4
 800114a:	6199      	str	r1, [r3, #24]
 800114c:	46b9      	mov	r9, r7
 800114e:	619a      	str	r2, [r3, #24]
 8001150:	ae2a      	add	r6, sp, #168	; 0xa8
 8001152:	f64f 78ff 	movw	r8, #65535	; 0xffff
 8001156:	e008      	b.n	800116a <ST7789_Fill+0x19a>
 8001158:	f04f 33ff 	mov.w	r3, #4294967295
 800115c:	4631      	mov	r1, r6
 800115e:	4648      	mov	r0, r9
 8001160:	f002 f8a4 	bl	80032ac <HAL_SPI_Transmit>
 8001164:	1b64      	subs	r4, r4, r5
 8001166:	442e      	add	r6, r5
 8001168:	d018      	beq.n	800119c <ST7789_Fill+0x1cc>
 800116a:	4544      	cmp	r4, r8
 800116c:	4625      	mov	r5, r4
 800116e:	bf28      	it	cs
 8001170:	4645      	movcs	r5, r8
 8001172:	2c0f      	cmp	r4, #15
 8001174:	b2aa      	uxth	r2, r5
 8001176:	d9ef      	bls.n	8001158 <ST7789_Fill+0x188>
 8001178:	4631      	mov	r1, r6
 800117a:	4648      	mov	r0, r9
 800117c:	f002 f9ba 	bl	80034f4 <HAL_SPI_Transmit_DMA>
 8001180:	6cbb      	ldr	r3, [r7, #72]	; 0x48
 8001182:	f893 3035 	ldrb.w	r3, [r3, #53]	; 0x35
 8001186:	2b01      	cmp	r3, #1
 8001188:	d0ec      	beq.n	8001164 <ST7789_Fill+0x194>
 800118a:	bf00      	nop
 800118c:	6cbb      	ldr	r3, [r7, #72]	; 0x48
 800118e:	f893 3035 	ldrb.w	r3, [r3, #53]	; 0x35
 8001192:	2b01      	cmp	r3, #1
 8001194:	d1f9      	bne.n	800118a <ST7789_Fill+0x1ba>
 8001196:	1b64      	subs	r4, r4, r5
 8001198:	442e      	add	r6, r5
 800119a:	d1e6      	bne.n	800116a <ST7789_Fill+0x19a>
 800119c:	4b19      	ldr	r3, [pc, #100]	; (8001204 <ST7789_Fill+0x234>)
 800119e:	f44f 6280 	mov.w	r2, #1024	; 0x400
 80011a2:	619a      	str	r2, [r3, #24]
 80011a4:	e7b0      	b.n	8001108 <ST7789_Fill+0x138>
 80011a6:	f04f 6280 	mov.w	r2, #67108864	; 0x4000000
 80011aa:	2304      	movs	r3, #4
 80011ac:	f8c9 2018 	str.w	r2, [r9, #24]
 80011b0:	4e13      	ldr	r6, [pc, #76]	; (8001200 <ST7789_Fill+0x230>)
 80011b2:	f8c9 3018 	str.w	r3, [r9, #24]
 80011b6:	46e8      	mov	r8, sp
 80011b8:	f64f 79ff 	movw	r9, #65535	; 0xffff
 80011bc:	e008      	b.n	80011d0 <ST7789_Fill+0x200>
 80011be:	f04f 33ff 	mov.w	r3, #4294967295
 80011c2:	4641      	mov	r1, r8
 80011c4:	4630      	mov	r0, r6
 80011c6:	f002 f871 	bl	80032ac <HAL_SPI_Transmit>
 80011ca:	1b2d      	subs	r5, r5, r4
 80011cc:	44a0      	add	r8, r4
 80011ce:	d0e5      	beq.n	800119c <ST7789_Fill+0x1cc>
 80011d0:	454d      	cmp	r5, r9
 80011d2:	462c      	mov	r4, r5
 80011d4:	bf28      	it	cs
 80011d6:	464c      	movcs	r4, r9
 80011d8:	2d0f      	cmp	r5, #15
 80011da:	b2a2      	uxth	r2, r4
 80011dc:	d9ef      	bls.n	80011be <ST7789_Fill+0x1ee>
 80011de:	4641      	mov	r1, r8
 80011e0:	4630      	mov	r0, r6
 80011e2:	f002 f987 	bl	80034f4 <HAL_SPI_Transmit_DMA>
 80011e6:	6cbb      	ldr	r3, [r7, #72]	; 0x48
 80011e8:	f893 3035 	ldrb.w	r3, [r3, #53]	; 0x35
 80011ec:	2b01      	cmp	r3, #1
 80011ee:	d0ec      	beq.n	80011ca <ST7789_Fill+0x1fa>
 80011f0:	bf00      	nop
 80011f2:	6cbb      	ldr	r3, [r7, #72]	; 0x48
 80011f4:	f893 3035 	ldrb.w	r3, [r3, #53]	; 0x35
 80011f8:	2b01      	cmp	r3, #1
 80011fa:	d1f9      	bne.n	80011f0 <ST7789_Fill+0x220>
 80011fc:	e7e5      	b.n	80011ca <ST7789_Fill+0x1fa>
 80011fe:	bf00      	nop
 8001200:	200000a4 	.word	0x200000a4
 8001204:	40020400 	.word	0x40020400

08001208 <ST7789_DrawCircle>:
 8001208:	e92d 4ff0 	stmdb	sp!, {r4, r5, r6, r7, r8, r9, sl, fp, lr}
 800120c:	ebc2 34c2 	rsb	r4, r2, r2, lsl #15
 8001210:	b08d      	sub	sp, #52	; 0x34
 8001212:	f1c2 0501 	rsb	r5, r2, #1
 8001216:	0064      	lsls	r4, r4, #1
 8001218:	b224      	sxth	r4, r4
 800121a:	9505      	str	r5, [sp, #20]
 800121c:	28ef      	cmp	r0, #239	; 0xef
 800121e:	b215      	sxth	r5, r2
 8001220:	9409      	str	r4, [sp, #36]	; 0x24
 8001222:	e9cd 0101 	strd	r0, r1, [sp, #4]
 8001226:	9306      	str	r3, [sp, #24]
 8001228:	b294      	uxth	r4, r2
 800122a:	9504      	str	r5, [sp, #16]
 800122c:	d80b      	bhi.n	8001246 <ST7789_DrawCircle+0x3e>
 800122e:	461f      	mov	r7, r3
 8001230:	1863      	adds	r3, r4, r1
 8001232:	b29b      	uxth	r3, r3
 8001234:	2b86      	cmp	r3, #134	; 0x86
 8001236:	f240 825f 	bls.w	80016f8 <ST7789_DrawCircle+0x4f0>
 800123a:	9b02      	ldr	r3, [sp, #8]
 800123c:	1b1b      	subs	r3, r3, r4
 800123e:	b29b      	uxth	r3, r3
 8001240:	2b86      	cmp	r3, #134	; 0x86
 8001242:	f240 822c 	bls.w	800169e <ST7789_DrawCircle+0x496>
 8001246:	9f01      	ldr	r7, [sp, #4]
 8001248:	19e2      	adds	r2, r4, r7
 800124a:	b292      	uxth	r2, r2
 800124c:	2aef      	cmp	r2, #239	; 0xef
 800124e:	f200 8245 	bhi.w	80016dc <ST7789_DrawCircle+0x4d4>
 8001252:	9b02      	ldr	r3, [sp, #8]
 8001254:	2b86      	cmp	r3, #134	; 0x86
 8001256:	f240 81e6 	bls.w	8001626 <ST7789_DrawCircle+0x41e>
 800125a:	9b04      	ldr	r3, [sp, #16]
 800125c:	2b00      	cmp	r3, #0
 800125e:	f000 81af 	beq.w	80015c0 <ST7789_DrawCircle+0x3b8>
 8001262:	9b06      	ldr	r3, [sp, #24]
 8001264:	4ebf      	ldr	r6, [pc, #764]	; (8001564 <ST7789_DrawCircle+0x35c>)
 8001266:	0a1a      	lsrs	r2, r3, #8
 8001268:	9207      	str	r2, [sp, #28]
 800126a:	b2db      	uxtb	r3, r3
 800126c:	2200      	movs	r2, #0
 800126e:	9203      	str	r2, [sp, #12]
 8001270:	9308      	str	r3, [sp, #32]
 8001272:	e135      	b.n	80014e0 <ST7789_DrawCircle+0x2d8>
 8001274:	9909      	ldr	r1, [sp, #36]	; 0x24
 8001276:	9a04      	ldr	r2, [sp, #16]
 8001278:	3102      	adds	r1, #2
 800127a:	3a01      	subs	r2, #1
 800127c:	fa13 f381 	uxtah	r3, r3, r1
 8001280:	b295      	uxth	r5, r2
 8001282:	b209      	sxth	r1, r1
 8001284:	b212      	sxth	r2, r2
 8001286:	b29b      	uxth	r3, r3
 8001288:	9109      	str	r1, [sp, #36]	; 0x24
 800128a:	9204      	str	r2, [sp, #16]
 800128c:	9a03      	ldr	r2, [sp, #12]
 800128e:	9801      	ldr	r0, [sp, #4]
 8001290:	3201      	adds	r2, #1
 8001292:	b294      	uxth	r4, r2
 8001294:	ea4f 0944 	mov.w	r9, r4, lsl #1
 8001298:	fa1f f989 	uxth.w	r9, r9
 800129c:	f109 0101 	add.w	r1, r9, #1
 80012a0:	440b      	add	r3, r1
 80012a2:	eb00 0804 	add.w	r8, r0, r4
 80012a6:	9902      	ldr	r1, [sp, #8]
 80012a8:	fa1f f888 	uxth.w	r8, r8
 80012ac:	186f      	adds	r7, r5, r1
 80012ae:	b212      	sxth	r2, r2
 80012b0:	b21b      	sxth	r3, r3
 80012b2:	f1b8 0fef 	cmp.w	r8, #239	; 0xef
 80012b6:	9203      	str	r2, [sp, #12]
 80012b8:	9305      	str	r3, [sp, #20]
 80012ba:	b2bf      	uxth	r7, r7
 80012bc:	f200 8118 	bhi.w	80014f0 <ST7789_DrawCircle+0x2e8>
 80012c0:	2f86      	cmp	r7, #134	; 0x86
 80012c2:	f200 813a 	bhi.w	800153a <ST7789_DrawCircle+0x332>
 80012c6:	9b06      	ldr	r3, [sp, #24]
 80012c8:	4642      	mov	r2, r8
 80012ca:	fa93 fc93 	rev16.w	ip, r3
 80012ce:	4639      	mov	r1, r7
 80012d0:	463b      	mov	r3, r7
 80012d2:	4640      	mov	r0, r8
 80012d4:	f8ad c02c 	strh.w	ip, [sp, #44]	; 0x2c
 80012d8:	f10d 0b2c 	add.w	fp, sp, #44	; 0x2c
 80012dc:	f7ff fb02 	bl	80008e4 <ST7789_SetAddressWindow>
 80012e0:	eba8 0a09 	sub.w	sl, r8, r9
 80012e4:	2204      	movs	r2, #4
 80012e6:	f04f 6380 	mov.w	r3, #67108864	; 0x4000000
 80012ea:	61b2      	str	r2, [r6, #24]
 80012ec:	489e      	ldr	r0, [pc, #632]	; (8001568 <ST7789_DrawCircle+0x360>)
 80012ee:	61b3      	str	r3, [r6, #24]
 80012f0:	4659      	mov	r1, fp
 80012f2:	f04f 33ff 	mov.w	r3, #4294967295
 80012f6:	2202      	movs	r2, #2
 80012f8:	fa1f fa8a 	uxth.w	sl, sl
 80012fc:	f001 ffd6 	bl	80032ac <HAL_SPI_Transmit>
 8001300:	f44f 6380 	mov.w	r3, #1024	; 0x400
 8001304:	f1ba 0fef 	cmp.w	sl, #239	; 0xef
 8001308:	61b3      	str	r3, [r6, #24]
 800130a:	f200 8188 	bhi.w	800161e <ST7789_DrawCircle+0x416>
 800130e:	463b      	mov	r3, r7
 8001310:	4639      	mov	r1, r7
 8001312:	9f07      	ldr	r7, [sp, #28]
 8001314:	f88d 702c 	strb.w	r7, [sp, #44]	; 0x2c
 8001318:	4652      	mov	r2, sl
 800131a:	9f08      	ldr	r7, [sp, #32]
 800131c:	f88d 702d 	strb.w	r7, [sp, #45]	; 0x2d
 8001320:	4650      	mov	r0, sl
 8001322:	f7ff fadf 	bl	80008e4 <ST7789_SetAddressWindow>
 8001326:	2304      	movs	r3, #4
 8001328:	f04f 6280 	mov.w	r2, #67108864	; 0x4000000
 800132c:	61b3      	str	r3, [r6, #24]
 800132e:	488e      	ldr	r0, [pc, #568]	; (8001568 <ST7789_DrawCircle+0x360>)
 8001330:	61b2      	str	r2, [r6, #24]
 8001332:	f04f 33ff 	mov.w	r3, #4294967295
 8001336:	2202      	movs	r2, #2
 8001338:	4659      	mov	r1, fp
 800133a:	f001 ffb7 	bl	80032ac <HAL_SPI_Transmit>
 800133e:	9a02      	ldr	r2, [sp, #8]
 8001340:	f44f 6380 	mov.w	r3, #1024	; 0x400
 8001344:	1b57      	subs	r7, r2, r5
 8001346:	f1b8 0fef 	cmp.w	r8, #239	; 0xef
 800134a:	61b3      	str	r3, [r6, #24]
 800134c:	b2bf      	uxth	r7, r7
 800134e:	f200 80dc 	bhi.w	800150a <ST7789_DrawCircle+0x302>
 8001352:	2f86      	cmp	r7, #134	; 0x86
 8001354:	d836      	bhi.n	80013c4 <ST7789_DrawCircle+0x1bc>
 8001356:	9b06      	ldr	r3, [sp, #24]
 8001358:	4642      	mov	r2, r8
 800135a:	fa93 fc93 	rev16.w	ip, r3
 800135e:	4640      	mov	r0, r8
 8001360:	463b      	mov	r3, r7
 8001362:	4639      	mov	r1, r7
 8001364:	f8ad c02c 	strh.w	ip, [sp, #44]	; 0x2c
 8001368:	f10d 0b2c 	add.w	fp, sp, #44	; 0x2c
 800136c:	f7ff faba 	bl	80008e4 <ST7789_SetAddressWindow>
 8001370:	2204      	movs	r2, #4
 8001372:	f04f 6380 	mov.w	r3, #67108864	; 0x4000000
 8001376:	61b2      	str	r2, [r6, #24]
 8001378:	487b      	ldr	r0, [pc, #492]	; (8001568 <ST7789_DrawCircle+0x360>)
 800137a:	61b3      	str	r3, [r6, #24]
 800137c:	4659      	mov	r1, fp
 800137e:	f04f 33ff 	mov.w	r3, #4294967295
 8001382:	2202      	movs	r2, #2
 8001384:	f001 ff92 	bl	80032ac <HAL_SPI_Transmit>
 8001388:	f44f 6380 	mov.w	r3, #1024	; 0x400
 800138c:	61b3      	str	r3, [r6, #24]
 800138e:	463b      	mov	r3, r7
 8001390:	4639      	mov	r1, r7
 8001392:	9f07      	ldr	r7, [sp, #28]
 8001394:	f88d 702c 	strb.w	r7, [sp, #44]	; 0x2c
 8001398:	4652      	mov	r2, sl
 800139a:	9f08      	ldr	r7, [sp, #32]
 800139c:	f88d 702d 	strb.w	r7, [sp, #45]	; 0x2d
 80013a0:	4650      	mov	r0, sl
 80013a2:	f7ff fa9f 	bl	80008e4 <ST7789_SetAddressWindow>
 80013a6:	2304      	movs	r3, #4
 80013a8:	f04f 6280 	mov.w	r2, #67108864	; 0x4000000
 80013ac:	61b3      	str	r3, [r6, #24]
 80013ae:	486e      	ldr	r0, [pc, #440]	; (8001568 <ST7789_DrawCircle+0x360>)
 80013b0:	61b2      	str	r2, [r6, #24]
 80013b2:	f04f 33ff 	mov.w	r3, #4294967295
 80013b6:	4659      	mov	r1, fp
 80013b8:	2202      	movs	r2, #2
 80013ba:	f001 ff77 	bl	80032ac <HAL_SPI_Transmit>
 80013be:	f44f 6380 	mov.w	r3, #1024	; 0x400
 80013c2:	61b3      	str	r3, [r6, #24]
 80013c4:	9b01      	ldr	r3, [sp, #4]
 80013c6:	9a02      	ldr	r2, [sp, #8]
 80013c8:	18ef      	adds	r7, r5, r3
 80013ca:	b2bf      	uxth	r7, r7
 80013cc:	4414      	add	r4, r2
 80013ce:	2fef      	cmp	r7, #239	; 0xef
 80013d0:	b2a4      	uxth	r4, r4
 80013d2:	f200 80a0 	bhi.w	8001516 <ST7789_DrawCircle+0x30e>
 80013d6:	2c86      	cmp	r4, #134	; 0x86
 80013d8:	f200 80b9 	bhi.w	800154e <ST7789_DrawCircle+0x346>
 80013dc:	9a06      	ldr	r2, [sp, #24]
 80013de:	4623      	mov	r3, r4
 80013e0:	fa92 fc92 	rev16.w	ip, r2
 80013e4:	4621      	mov	r1, r4
 80013e6:	463a      	mov	r2, r7
 80013e8:	4638      	mov	r0, r7
 80013ea:	f8ad c02c 	strh.w	ip, [sp, #44]	; 0x2c
 80013ee:	f10d 0b2c 	add.w	fp, sp, #44	; 0x2c
 80013f2:	f7ff fa77 	bl	80008e4 <ST7789_SetAddressWindow>
 80013f6:	2204      	movs	r2, #4
 80013f8:	f04f 6380 	mov.w	r3, #67108864	; 0x4000000
 80013fc:	61b2      	str	r2, [r6, #24]
 80013fe:	485a      	ldr	r0, [pc, #360]	; (8001568 <ST7789_DrawCircle+0x360>)
 8001400:	61b3      	str	r3, [r6, #24]
 8001402:	4659      	mov	r1, fp
 8001404:	f04f 33ff 	mov.w	r3, #4294967295
 8001408:	2202      	movs	r2, #2
 800140a:	f001 ff4f 	bl	80032ac <HAL_SPI_Transmit>
 800140e:	9b01      	ldr	r3, [sp, #4]
 8001410:	1b5d      	subs	r5, r3, r5
 8001412:	fa1f f885 	uxth.w	r8, r5
 8001416:	f44f 6380 	mov.w	r3, #1024	; 0x400
 800141a:	f1b8 0fef 	cmp.w	r8, #239	; 0xef
 800141e:	61b3      	str	r3, [r6, #24]
 8001420:	f200 80a4 	bhi.w	800156c <ST7789_DrawCircle+0x364>
 8001424:	9d07      	ldr	r5, [sp, #28]
 8001426:	f88d 502c 	strb.w	r5, [sp, #44]	; 0x2c
 800142a:	4623      	mov	r3, r4
 800142c:	9d08      	ldr	r5, [sp, #32]
 800142e:	f88d 502d 	strb.w	r5, [sp, #45]	; 0x2d
 8001432:	4642      	mov	r2, r8
 8001434:	4621      	mov	r1, r4
 8001436:	4640      	mov	r0, r8
 8001438:	f7ff fa54 	bl	80008e4 <ST7789_SetAddressWindow>
 800143c:	2304      	movs	r3, #4
 800143e:	f04f 6280 	mov.w	r2, #67108864	; 0x4000000
 8001442:	61b3      	str	r3, [r6, #24]
 8001444:	4848      	ldr	r0, [pc, #288]	; (8001568 <ST7789_DrawCircle+0x360>)
 8001446:	61b2      	str	r2, [r6, #24]
 8001448:	f04f 33ff 	mov.w	r3, #4294967295
 800144c:	4659      	mov	r1, fp
 800144e:	2202      	movs	r2, #2
 8001450:	f001 ff2c 	bl	80032ac <HAL_SPI_Transmit>
 8001454:	eba4 0909 	sub.w	r9, r4, r9
 8001458:	f44f 6380 	mov.w	r3, #1024	; 0x400
 800145c:	2fef      	cmp	r7, #239	; 0xef
 800145e:	fa1f f989 	uxth.w	r9, r9
 8001462:	61b3      	str	r3, [r6, #24]
 8001464:	d863      	bhi.n	800152e <ST7789_DrawCircle+0x326>
 8001466:	f1b9 0f86 	cmp.w	r9, #134	; 0x86
 800146a:	d835      	bhi.n	80014d8 <ST7789_DrawCircle+0x2d0>
 800146c:	9b06      	ldr	r3, [sp, #24]
 800146e:	463a      	mov	r2, r7
 8001470:	ba5c      	rev16	r4, r3
 8001472:	4638      	mov	r0, r7
 8001474:	464b      	mov	r3, r9
 8001476:	4649      	mov	r1, r9
 8001478:	f8ad 402c 	strh.w	r4, [sp, #44]	; 0x2c
 800147c:	f10d 0b2c 	add.w	fp, sp, #44	; 0x2c
 8001480:	f7ff fa30 	bl	80008e4 <ST7789_SetAddressWindow>
 8001484:	2204      	movs	r2, #4
 8001486:	f04f 6380 	mov.w	r3, #67108864	; 0x4000000
 800148a:	61b2      	str	r2, [r6, #24]
 800148c:	4836      	ldr	r0, [pc, #216]	; (8001568 <ST7789_DrawCircle+0x360>)
 800148e:	61b3      	str	r3, [r6, #24]
 8001490:	4659      	mov	r1, fp
 8001492:	f04f 33ff 	mov.w	r3, #4294967295
 8001496:	2202      	movs	r2, #2
 8001498:	f001 ff08 	bl	80032ac <HAL_SPI_Transmit>
 800149c:	f44f 6380 	mov.w	r3, #1024	; 0x400
 80014a0:	61b3      	str	r3, [r6, #24]
 80014a2:	9c07      	ldr	r4, [sp, #28]
 80014a4:	f88d 402c 	strb.w	r4, [sp, #44]	; 0x2c
 80014a8:	464b      	mov	r3, r9
 80014aa:	9c08      	ldr	r4, [sp, #32]
 80014ac:	f88d 402d 	strb.w	r4, [sp, #45]	; 0x2d
 80014b0:	4649      	mov	r1, r9
 80014b2:	4642      	mov	r2, r8
 80014b4:	4640      	mov	r0, r8
 80014b6:	f7ff fa15 	bl	80008e4 <ST7789_SetAddressWindow>
 80014ba:	2304      	movs	r3, #4
 80014bc:	f04f 6280 	mov.w	r2, #67108864	; 0x4000000
 80014c0:	61b3      	str	r3, [r6, #24]
 80014c2:	4829      	ldr	r0, [pc, #164]	; (8001568 <ST7789_DrawCircle+0x360>)
 80014c4:	61b2      	str	r2, [r6, #24]
 80014c6:	f04f 33ff 	mov.w	r3, #4294967295
 80014ca:	4659      	mov	r1, fp
 80014cc:	2202      	movs	r2, #2
 80014ce:	f001 feed 	bl	80032ac <HAL_SPI_Transmit>
 80014d2:	f44f 6380 	mov.w	r3, #1024	; 0x400
 80014d6:	61b3      	str	r3, [r6, #24]
 80014d8:	e9dd 3203 	ldrd	r3, r2, [sp, #12]
 80014dc:	4293      	cmp	r3, r2
 80014de:	da6f      	bge.n	80015c0 <ST7789_DrawCircle+0x3b8>
 80014e0:	9b05      	ldr	r3, [sp, #20]
 80014e2:	2b00      	cmp	r3, #0
 80014e4:	f6bf aec6 	bge.w	8001274 <ST7789_DrawCircle+0x6c>
 80014e8:	f8bd 5010 	ldrh.w	r5, [sp, #16]
 80014ec:	b29b      	uxth	r3, r3
 80014ee:	e6cd      	b.n	800128c <ST7789_DrawCircle+0x84>
 80014f0:	eba8 0a09 	sub.w	sl, r8, r9
 80014f4:	fa1f fa8a 	uxth.w	sl, sl
 80014f8:	f1ba 0fef 	cmp.w	sl, #239	; 0xef
 80014fc:	f63f af62 	bhi.w	80013c4 <ST7789_DrawCircle+0x1bc>
 8001500:	2f86      	cmp	r7, #134	; 0x86
 8001502:	f240 8089 	bls.w	8001618 <ST7789_DrawCircle+0x410>
 8001506:	1b4f      	subs	r7, r1, r5
 8001508:	b2bf      	uxth	r7, r7
 800150a:	2f86      	cmp	r7, #134	; 0x86
 800150c:	f63f af5a 	bhi.w	80013c4 <ST7789_DrawCircle+0x1bc>
 8001510:	f10d 0b2c 	add.w	fp, sp, #44	; 0x2c
 8001514:	e73b      	b.n	800138e <ST7789_DrawCircle+0x186>
 8001516:	1b5d      	subs	r5, r3, r5
 8001518:	fa1f f885 	uxth.w	r8, r5
 800151c:	f1b8 0fef 	cmp.w	r8, #239	; 0xef
 8001520:	d8da      	bhi.n	80014d8 <ST7789_DrawCircle+0x2d0>
 8001522:	2c86      	cmp	r4, #134	; 0x86
 8001524:	d975      	bls.n	8001612 <ST7789_DrawCircle+0x40a>
 8001526:	eba4 0909 	sub.w	r9, r4, r9
 800152a:	fa1f f989 	uxth.w	r9, r9
 800152e:	f1b9 0f86 	cmp.w	r9, #134	; 0x86
 8001532:	d8d1      	bhi.n	80014d8 <ST7789_DrawCircle+0x2d0>
 8001534:	f10d 0b2c 	add.w	fp, sp, #44	; 0x2c
 8001538:	e7b3      	b.n	80014a2 <ST7789_DrawCircle+0x29a>
 800153a:	eba8 0a09 	sub.w	sl, r8, r9
 800153e:	fa1f fa8a 	uxth.w	sl, sl
 8001542:	f1ba 0fef 	cmp.w	sl, #239	; 0xef
 8001546:	d83e      	bhi.n	80015c6 <ST7789_DrawCircle+0x3be>
 8001548:	1b4f      	subs	r7, r1, r5
 800154a:	b2bf      	uxth	r7, r7
 800154c:	e701      	b.n	8001352 <ST7789_DrawCircle+0x14a>
 800154e:	1b5d      	subs	r5, r3, r5
 8001550:	fa1f f885 	uxth.w	r8, r5
 8001554:	f1b8 0fef 	cmp.w	r8, #239	; 0xef
 8001558:	d808      	bhi.n	800156c <ST7789_DrawCircle+0x364>
 800155a:	eba4 0909 	sub.w	r9, r4, r9
 800155e:	fa1f f989 	uxth.w	r9, r9
 8001562:	e780      	b.n	8001466 <ST7789_DrawCircle+0x25e>
 8001564:	40020400 	.word	0x40020400
 8001568:	200000a4 	.word	0x200000a4
 800156c:	eba4 0909 	sub.w	r9, r4, r9
 8001570:	fa1f f989 	uxth.w	r9, r9
 8001574:	f1b9 0f86 	cmp.w	r9, #134	; 0x86
 8001578:	d8ae      	bhi.n	80014d8 <ST7789_DrawCircle+0x2d0>
 800157a:	9b06      	ldr	r3, [sp, #24]
 800157c:	463a      	mov	r2, r7
 800157e:	ba5c      	rev16	r4, r3
 8001580:	4638      	mov	r0, r7
 8001582:	464b      	mov	r3, r9
 8001584:	4649      	mov	r1, r9
 8001586:	f8ad 402c 	strh.w	r4, [sp, #44]	; 0x2c
 800158a:	f10d 0b2c 	add.w	fp, sp, #44	; 0x2c
 800158e:	f7ff f9a9 	bl	80008e4 <ST7789_SetAddressWindow>
 8001592:	2204      	movs	r2, #4
 8001594:	f04f 6380 	mov.w	r3, #67108864	; 0x4000000
 8001598:	61b2      	str	r2, [r6, #24]
 800159a:	4866      	ldr	r0, [pc, #408]	; (8001734 <ST7789_DrawCircle+0x52c>)
 800159c:	61b3      	str	r3, [r6, #24]
 800159e:	4659      	mov	r1, fp
 80015a0:	f04f 33ff 	mov.w	r3, #4294967295
 80015a4:	2202      	movs	r2, #2
 80015a6:	f001 fe81 	bl	80032ac <HAL_SPI_Transmit>
 80015aa:	f44f 6380 	mov.w	r3, #1024	; 0x400
 80015ae:	f1b8 0fef 	cmp.w	r8, #239	; 0xef
 80015b2:	61b3      	str	r3, [r6, #24]
 80015b4:	f67f af75 	bls.w	80014a2 <ST7789_DrawCircle+0x29a>
 80015b8:	e9dd 3203 	ldrd	r3, r2, [sp, #12]
 80015bc:	4293      	cmp	r3, r2
 80015be:	db8f      	blt.n	80014e0 <ST7789_DrawCircle+0x2d8>
 80015c0:	b00d      	add	sp, #52	; 0x34
 80015c2:	e8bd 8ff0 	ldmia.w	sp!, {r4, r5, r6, r7, r8, r9, sl, fp, pc}
 80015c6:	1b4f      	subs	r7, r1, r5
 80015c8:	b2bf      	uxth	r7, r7
 80015ca:	2f86      	cmp	r7, #134	; 0x86
 80015cc:	f63f aefa 	bhi.w	80013c4 <ST7789_DrawCircle+0x1bc>
 80015d0:	9b06      	ldr	r3, [sp, #24]
 80015d2:	4642      	mov	r2, r8
 80015d4:	fa93 fc93 	rev16.w	ip, r3
 80015d8:	4640      	mov	r0, r8
 80015da:	463b      	mov	r3, r7
 80015dc:	4639      	mov	r1, r7
 80015de:	f8ad c02c 	strh.w	ip, [sp, #44]	; 0x2c
 80015e2:	f10d 0b2c 	add.w	fp, sp, #44	; 0x2c
 80015e6:	f7ff f97d 	bl	80008e4 <ST7789_SetAddressWindow>
 80015ea:	2204      	movs	r2, #4
 80015ec:	f04f 6380 	mov.w	r3, #67108864	; 0x4000000
 80015f0:	61b2      	str	r2, [r6, #24]
 80015f2:	4850      	ldr	r0, [pc, #320]	; (8001734 <ST7789_DrawCircle+0x52c>)
 80015f4:	61b3      	str	r3, [r6, #24]
 80015f6:	4659      	mov	r1, fp
 80015f8:	f04f 33ff 	mov.w	r3, #4294967295
 80015fc:	2202      	movs	r2, #2
 80015fe:	f001 fe55 	bl	80032ac <HAL_SPI_Transmit>
 8001602:	f44f 6380 	mov.w	r3, #1024	; 0x400
 8001606:	f1ba 0fef 	cmp.w	sl, #239	; 0xef
 800160a:	61b3      	str	r3, [r6, #24]
 800160c:	f63f aeda 	bhi.w	80013c4 <ST7789_DrawCircle+0x1bc>
 8001610:	e6bd      	b.n	800138e <ST7789_DrawCircle+0x186>
 8001612:	f10d 0b2c 	add.w	fp, sp, #44	; 0x2c
 8001616:	e705      	b.n	8001424 <ST7789_DrawCircle+0x21c>
 8001618:	f10d 0b2c 	add.w	fp, sp, #44	; 0x2c
 800161c:	e677      	b.n	800130e <ST7789_DrawCircle+0x106>
 800161e:	9b02      	ldr	r3, [sp, #8]
 8001620:	1b5f      	subs	r7, r3, r5
 8001622:	b2bf      	uxth	r7, r7
 8001624:	e7d1      	b.n	80015ca <ST7789_DrawCircle+0x3c2>
 8001626:	9906      	ldr	r1, [sp, #24]
 8001628:	4d43      	ldr	r5, [pc, #268]	; (8001738 <ST7789_DrawCircle+0x530>)
 800162a:	ba4e      	rev16	r6, r1
 800162c:	4610      	mov	r0, r2
 800162e:	4619      	mov	r1, r3
 8001630:	f8ad 602c 	strh.w	r6, [sp, #44]	; 0x2c
 8001634:	f7ff f956 	bl	80008e4 <ST7789_SetAddressWindow>
 8001638:	ae0b      	add	r6, sp, #44	; 0x2c
 800163a:	2204      	movs	r2, #4
 800163c:	f04f 6380 	mov.w	r3, #67108864	; 0x4000000
 8001640:	61aa      	str	r2, [r5, #24]
 8001642:	4631      	mov	r1, r6
 8001644:	61ab      	str	r3, [r5, #24]
 8001646:	2202      	movs	r2, #2
 8001648:	f04f 33ff 	mov.w	r3, #4294967295
 800164c:	4839      	ldr	r0, [pc, #228]	; (8001734 <ST7789_DrawCircle+0x52c>)
 800164e:	f001 fe2d 	bl	80032ac <HAL_SPI_Transmit>
 8001652:	1b3c      	subs	r4, r7, r4
 8001654:	f44f 6380 	mov.w	r3, #1024	; 0x400
 8001658:	b2a2      	uxth	r2, r4
 800165a:	61ab      	str	r3, [r5, #24]
 800165c:	9b06      	ldr	r3, [sp, #24]
 800165e:	2aef      	cmp	r2, #239	; 0xef
 8001660:	ea4f 2113 	mov.w	r1, r3, lsr #8
 8001664:	b2dc      	uxtb	r4, r3
 8001666:	f63f adf8 	bhi.w	800125a <ST7789_DrawCircle+0x52>
 800166a:	9b02      	ldr	r3, [sp, #8]
 800166c:	f88d 102c 	strb.w	r1, [sp, #44]	; 0x2c
 8001670:	4610      	mov	r0, r2
 8001672:	4619      	mov	r1, r3
 8001674:	f88d 402d 	strb.w	r4, [sp, #45]	; 0x2d
 8001678:	4c2f      	ldr	r4, [pc, #188]	; (8001738 <ST7789_DrawCircle+0x530>)
 800167a:	f7ff f933 	bl	80008e4 <ST7789_SetAddressWindow>
 800167e:	2304      	movs	r3, #4
 8001680:	f04f 6280 	mov.w	r2, #67108864	; 0x4000000
 8001684:	61a3      	str	r3, [r4, #24]
 8001686:	482b      	ldr	r0, [pc, #172]	; (8001734 <ST7789_DrawCircle+0x52c>)
 8001688:	61a2      	str	r2, [r4, #24]
 800168a:	f04f 33ff 	mov.w	r3, #4294967295
 800168e:	4631      	mov	r1, r6
 8001690:	2202      	movs	r2, #2
 8001692:	f001 fe0b 	bl	80032ac <HAL_SPI_Transmit>
 8001696:	f44f 6380 	mov.w	r3, #1024	; 0x400
 800169a:	61a3      	str	r3, [r4, #24]
 800169c:	e5dd      	b.n	800125a <ST7789_DrawCircle+0x52>
 800169e:	9a06      	ldr	r2, [sp, #24]
 80016a0:	4d25      	ldr	r5, [pc, #148]	; (8001738 <ST7789_DrawCircle+0x530>)
 80016a2:	ba56      	rev16	r6, r2
 80016a4:	9a01      	ldr	r2, [sp, #4]
 80016a6:	f8ad 602c 	strh.w	r6, [sp, #44]	; 0x2c
 80016aa:	4619      	mov	r1, r3
 80016ac:	4610      	mov	r0, r2
 80016ae:	f7ff f919 	bl	80008e4 <ST7789_SetAddressWindow>
 80016b2:	2304      	movs	r3, #4
 80016b4:	f04f 6280 	mov.w	r2, #67108864	; 0x4000000
 80016b8:	61ab      	str	r3, [r5, #24]
 80016ba:	481e      	ldr	r0, [pc, #120]	; (8001734 <ST7789_DrawCircle+0x52c>)
 80016bc:	61aa      	str	r2, [r5, #24]
 80016be:	f04f 33ff 	mov.w	r3, #4294967295
 80016c2:	2202      	movs	r2, #2
 80016c4:	a90b      	add	r1, sp, #44	; 0x2c
 80016c6:	f001 fdf1 	bl	80032ac <HAL_SPI_Transmit>
 80016ca:	9f01      	ldr	r7, [sp, #4]
 80016cc:	19e2      	adds	r2, r4, r7
 80016ce:	b292      	uxth	r2, r2
 80016d0:	f44f 6380 	mov.w	r3, #1024	; 0x400
 80016d4:	2aef      	cmp	r2, #239	; 0xef
 80016d6:	61ab      	str	r3, [r5, #24]
 80016d8:	f67f adbb 	bls.w	8001252 <ST7789_DrawCircle+0x4a>
 80016dc:	1b3c      	subs	r4, r7, r4
 80016de:	b2a2      	uxth	r2, r4
 80016e0:	2aef      	cmp	r2, #239	; 0xef
 80016e2:	f63f adba 	bhi.w	800125a <ST7789_DrawCircle+0x52>
 80016e6:	9b02      	ldr	r3, [sp, #8]
 80016e8:	2b86      	cmp	r3, #134	; 0x86
 80016ea:	f63f adb6 	bhi.w	800125a <ST7789_DrawCircle+0x52>
 80016ee:	9b06      	ldr	r3, [sp, #24]
 80016f0:	ae0b      	add	r6, sp, #44	; 0x2c
 80016f2:	0a19      	lsrs	r1, r3, #8
 80016f4:	b2dc      	uxtb	r4, r3
 80016f6:	e7b8      	b.n	800166a <ST7789_DrawCircle+0x462>
 80016f8:	4d0f      	ldr	r5, [pc, #60]	; (8001738 <ST7789_DrawCircle+0x530>)
 80016fa:	4602      	mov	r2, r0
 80016fc:	4619      	mov	r1, r3
 80016fe:	ba7e      	rev16	r6, r7
 8001700:	f8ad 602c 	strh.w	r6, [sp, #44]	; 0x2c
 8001704:	f7ff f8ee 	bl	80008e4 <ST7789_SetAddressWindow>
 8001708:	2304      	movs	r3, #4
 800170a:	f04f 6280 	mov.w	r2, #67108864	; 0x4000000
 800170e:	61ab      	str	r3, [r5, #24]
 8001710:	4808      	ldr	r0, [pc, #32]	; (8001734 <ST7789_DrawCircle+0x52c>)
 8001712:	61aa      	str	r2, [r5, #24]
 8001714:	f04f 33ff 	mov.w	r3, #4294967295
 8001718:	2202      	movs	r2, #2
 800171a:	a90b      	add	r1, sp, #44	; 0x2c
 800171c:	f001 fdc6 	bl	80032ac <HAL_SPI_Transmit>
 8001720:	f44f 6380 	mov.w	r3, #1024	; 0x400
 8001724:	61ab      	str	r3, [r5, #24]
 8001726:	9b02      	ldr	r3, [sp, #8]
 8001728:	1b1b      	subs	r3, r3, r4
 800172a:	b29b      	uxth	r3, r3
 800172c:	2b86      	cmp	r3, #134	; 0x86
 800172e:	f63f ad8a 	bhi.w	8001246 <ST7789_DrawCircle+0x3e>
 8001732:	e7b4      	b.n	800169e <ST7789_DrawCircle+0x496>
 8001734:	200000a4 	.word	0x200000a4
 8001738:	40020400 	.word	0x40020400

0800173c <ST7789_WriteChar>:
 800173c:	b082      	sub	sp, #8
 800173e:	e92d 43f0 	stmdb	sp!, {r4, r5, r6, r7, r8, r9, lr}
 8001742:	b083      	sub	sp, #12
 8001744:	b2df      	uxtb	r7, r3
 8001746:	f3c3 2507 	ubfx	r5, r3, #8, #8
 800174a:	f8bd c034 	ldrh.w	ip, [sp, #52]	; 0x34
 800174e:	f8bd 6038 	ldrh.w	r6, [sp, #56]	; 0x38
 8001752:	930b      	str	r3, [sp, #44]	; 0x2c
 8001754:	f105 38ff 	add.w	r8, r5, #4294967295
 8001758:	f107 3eff 	add.w	lr, r7, #4294967295
 800175c:	4488      	add	r8, r1
 800175e:	4486      	add	lr, r0
 8001760:	fa1f f388 	uxth.w	r3, r8
 8001764:	fa9c fc9c 	rev16.w	ip, ip
 8001768:	4614      	mov	r4, r2
 800176a:	ba76      	rev16	r6, r6
 800176c:	fa1f f28e 	uxth.w	r2, lr
 8001770:	f8ad c000 	strh.w	ip, [sp]
 8001774:	f8ad 6004 	strh.w	r6, [sp, #4]
 8001778:	f7ff f8b4 	bl	80008e4 <ST7789_SetAddressWindow>
 800177c:	4b1c      	ldr	r3, [pc, #112]	; (80017f0 <ST7789_WriteChar+0xb4>)
 800177e:	f04f 6180 	mov.w	r1, #67108864	; 0x4000000
 8001782:	2204      	movs	r2, #4
 8001784:	6199      	str	r1, [r3, #24]
 8001786:	619a      	str	r2, [r3, #24]
 8001788:	b34d      	cbz	r5, 80017de <ST7789_WriteChar+0xa2>
 800178a:	3c20      	subs	r4, #32
 800178c:	990c      	ldr	r1, [sp, #48]	; 0x30
 800178e:	fb05 f204 	mul.w	r2, r5, r4
 8001792:	b327      	cbz	r7, 80017de <ST7789_WriteChar+0xa2>
 8001794:	f102 4300 	add.w	r3, r2, #2147483648	; 0x80000000
 8001798:	3b01      	subs	r3, #1
 800179a:	442a      	add	r2, r5
 800179c:	f1a1 0902 	sub.w	r9, r1, #2
 80017a0:	4d14      	ldr	r5, [pc, #80]	; (80017f4 <ST7789_WriteChar+0xb8>)
 80017a2:	eb01 0843 	add.w	r8, r1, r3, lsl #1
 80017a6:	eb09 0942 	add.w	r9, r9, r2, lsl #1
 80017aa:	f838 6f02 	ldrh.w	r6, [r8, #2]!
 80017ae:	2400      	movs	r4, #0
 80017b0:	fa06 f304 	lsl.w	r3, r6, r4
 80017b4:	f413 4f00 	tst.w	r3, #32768	; 0x8000
 80017b8:	f04f 0202 	mov.w	r2, #2
 80017bc:	f04f 33ff 	mov.w	r3, #4294967295
 80017c0:	4669      	mov	r1, sp
 80017c2:	4628      	mov	r0, r5
 80017c4:	bf01      	itttt	eq
 80017c6:	f04f 33ff 	moveq.w	r3, #4294967295
 80017ca:	2202      	moveq	r2, #2
 80017cc:	a901      	addeq	r1, sp, #4
 80017ce:	4628      	moveq	r0, r5
 80017d0:	3401      	adds	r4, #1
 80017d2:	f001 fd6b 	bl	80032ac <HAL_SPI_Transmit>
 80017d6:	42bc      	cmp	r4, r7
 80017d8:	d1ea      	bne.n	80017b0 <ST7789_WriteChar+0x74>
 80017da:	45c1      	cmp	r9, r8
 80017dc:	d1e5      	bne.n	80017aa <ST7789_WriteChar+0x6e>
 80017de:	4b04      	ldr	r3, [pc, #16]	; (80017f0 <ST7789_WriteChar+0xb4>)
 80017e0:	f44f 6280 	mov.w	r2, #1024	; 0x400
 80017e4:	619a      	str	r2, [r3, #24]
 80017e6:	b003      	add	sp, #12
 80017e8:	e8bd 43f0 	ldmia.w	sp!, {r4, r5, r6, r7, r8, r9, lr}
 80017ec:	b002      	add	sp, #8
 80017ee:	4770      	bx	lr
 80017f0:	40020400 	.word	0x40020400
 80017f4:	200000a4 	.word	0x200000a4

080017f8 <printTime>:
 80017f8:	e92d 47f0 	stmdb	sp!, {r4, r5, r6, r7, r8, r9, sl, lr}
 80017fc:	b088      	sub	sp, #32
 80017fe:	f000 fe85 	bl	800250c <HAL_GetTick>
 8001802:	4b20      	ldr	r3, [pc, #128]	; (8001884 <printTime+0x8c>)
 8001804:	4920      	ldr	r1, [pc, #128]	; (8001888 <printTime+0x90>)
 8001806:	681b      	ldr	r3, [r3, #0]
 8001808:	4602      	mov	r2, r0
 800180a:	1ad2      	subs	r2, r2, r3
 800180c:	a804      	add	r0, sp, #16
 800180e:	f002 f81d 	bl	800384c <siprintf>
 8001812:	4b1e      	ldr	r3, [pc, #120]	; (800188c <printTime+0x94>)
 8001814:	f89d 2010 	ldrb.w	r2, [sp, #16]
 8001818:	781d      	ldrb	r5, [r3, #0]
 800181a:	785c      	ldrb	r4, [r3, #1]
 800181c:	e893 0003 	ldmia.w	r3, {r0, r1}
 8001820:	ab08      	add	r3, sp, #32
 8001822:	e903 0003 	stmdb	r3, {r0, r1}
 8001826:	b34a      	cbz	r2, 800187c <printTime+0x84>
 8001828:	f10d 0711 	add.w	r7, sp, #17
 800182c:	f04f 0a78 	mov.w	sl, #120	; 0x78
 8001830:	20a0      	movs	r0, #160	; 0xa0
 8001832:	f64f 79ff 	movw	r9, #65535	; 0xffff
 8001836:	f44f 4878 	mov.w	r8, #63488	; 0xf800
 800183a:	1946      	adds	r6, r0, r5
 800183c:	2eef      	cmp	r6, #239	; 0xef
 800183e:	eb0a 0304 	add.w	r3, sl, r4
 8001842:	dd0a      	ble.n	800185a <printTime+0x62>
 8001844:	fa1f fa83 	uxth.w	sl, r3
 8001848:	eb0a 0304 	add.w	r3, sl, r4
 800184c:	2b86      	cmp	r3, #134	; 0x86
 800184e:	dc15      	bgt.n	800187c <printTime+0x84>
 8001850:	2a20      	cmp	r2, #32
 8001852:	f04f 0000 	mov.w	r0, #0
 8001856:	d00d      	beq.n	8001874 <printTime+0x7c>
 8001858:	462e      	mov	r6, r5
 800185a:	f88d 5018 	strb.w	r5, [sp, #24]
 800185e:	f88d 4019 	strb.w	r4, [sp, #25]
 8001862:	e9dd 3106 	ldrd	r3, r1, [sp, #24]
 8001866:	e9cd 8901 	strd	r8, r9, [sp, #4]
 800186a:	9100      	str	r1, [sp, #0]
 800186c:	4651      	mov	r1, sl
 800186e:	f7ff ff65 	bl	800173c <ST7789_WriteChar>
 8001872:	b2b0      	uxth	r0, r6
 8001874:	f817 2b01 	ldrb.w	r2, [r7], #1
 8001878:	2a00      	cmp	r2, #0
 800187a:	d1de      	bne.n	800183a <printTime+0x42>
 800187c:	b008      	add	sp, #32
 800187e:	e8bd 87f0 	ldmia.w	sp!, {r4, r5, r6, r7, r8, r9, sl, pc}
 8001882:	bf00      	nop
 8001884:	20000098 	.word	0x20000098
 8001888:	0800f504 	.word	0x0800f504
 800188c:	20000004 	.word	0x20000004

08001890 <ST7789_DrawFilledCircle>:
 8001890:	e92d 4ff0 	stmdb	sp!, {r4, r5, r6, r7, r8, r9, sl, fp, lr}
 8001894:	b089      	sub	sp, #36	; 0x24
 8001896:	b294      	uxth	r4, r2
 8001898:	9203      	str	r2, [sp, #12]
 800189a:	ebc4 32c4 	rsb	r2, r4, r4, lsl #15
 800189e:	0052      	lsls	r2, r2, #1
 80018a0:	fa1f fa80 	uxth.w	sl, r0
 80018a4:	4d9e      	ldr	r5, [pc, #632]	; (8001b20 <ST7789_DrawFilledCircle+0x290>)
 80018a6:	f1c4 0001 	rsb	r0, r4, #1
 80018aa:	469b      	mov	fp, r3
 80018ac:	b213      	sxth	r3, r2
 80018ae:	9305      	str	r3, [sp, #20]
 80018b0:	f04f 6680 	mov.w	r6, #67108864	; 0x4000000
 80018b4:	b203      	sxth	r3, r0
 80018b6:	f1ba 0fef 	cmp.w	sl, #239	; 0xef
 80018ba:	9304      	str	r3, [sp, #16]
 80018bc:	fa1f f981 	uxth.w	r9, r1
 80018c0:	61ae      	str	r6, [r5, #24]
 80018c2:	d80b      	bhi.n	80018dc <ST7789_DrawFilledCircle+0x4c>
 80018c4:	eb04 0309 	add.w	r3, r4, r9
 80018c8:	b29b      	uxth	r3, r3
 80018ca:	2b86      	cmp	r3, #134	; 0x86
 80018cc:	f240 80c6 	bls.w	8001a5c <ST7789_DrawFilledCircle+0x1cc>
 80018d0:	eba9 0304 	sub.w	r3, r9, r4
 80018d4:	b29b      	uxth	r3, r3
 80018d6:	2b86      	cmp	r3, #134	; 0x86
 80018d8:	f240 8091 	bls.w	80019fe <ST7789_DrawFilledCircle+0x16e>
 80018dc:	eb04 050a 	add.w	r5, r4, sl
 80018e0:	b2ad      	uxth	r5, r5
 80018e2:	2def      	cmp	r5, #239	; 0xef
 80018e4:	f200 80aa 	bhi.w	8001a3c <ST7789_DrawFilledCircle+0x1ac>
 80018e8:	f1b9 0f86 	cmp.w	r9, #134	; 0x86
 80018ec:	f240 80d3 	bls.w	8001a96 <ST7789_DrawFilledCircle+0x206>
 80018f0:	ebaa 0404 	sub.w	r4, sl, r4
 80018f4:	b2a4      	uxth	r4, r4
 80018f6:	42a5      	cmp	r5, r4
 80018f8:	d202      	bcs.n	8001900 <ST7789_DrawFilledCircle+0x70>
 80018fa:	4623      	mov	r3, r4
 80018fc:	462c      	mov	r4, r5
 80018fe:	461d      	mov	r5, r3
 8001900:	464b      	mov	r3, r9
 8001902:	f8cd b000 	str.w	fp, [sp]
 8001906:	462a      	mov	r2, r5
 8001908:	4620      	mov	r0, r4
 800190a:	4649      	mov	r1, r9
 800190c:	f7ff fb60 	bl	8000fd0 <ST7789_Fill>
 8001910:	9b03      	ldr	r3, [sp, #12]
 8001912:	2b00      	cmp	r3, #0
 8001914:	dd70      	ble.n	80019f8 <ST7789_DrawFilledCircle+0x168>
 8001916:	f04f 0800 	mov.w	r8, #0
 800191a:	e010      	b.n	800193e <ST7789_DrawFilledCircle+0xae>
 800191c:	4632      	mov	r2, r6
 800191e:	4620      	mov	r0, r4
 8001920:	f7ff fb56 	bl	8000fd0 <ST7789_Fill>
 8001924:	eba9 0305 	sub.w	r3, r9, r5
 8001928:	b29b      	uxth	r3, r3
 800192a:	4619      	mov	r1, r3
 800192c:	f8cd b000 	str.w	fp, [sp]
 8001930:	4632      	mov	r2, r6
 8001932:	4620      	mov	r0, r4
 8001934:	f7ff fb4c 	bl	8000fd0 <ST7789_Fill>
 8001938:	9b03      	ldr	r3, [sp, #12]
 800193a:	4543      	cmp	r3, r8
 800193c:	dd5c      	ble.n	80019f8 <ST7789_DrawFilledCircle+0x168>
 800193e:	9b04      	ldr	r3, [sp, #16]
 8001940:	2b00      	cmp	r3, #0
 8001942:	f2c0 80e8 	blt.w	8001b16 <ST7789_DrawFilledCircle+0x286>
 8001946:	9905      	ldr	r1, [sp, #20]
 8001948:	3102      	adds	r1, #2
 800194a:	fa13 f281 	uxtah	r2, r3, r1
 800194e:	9b03      	ldr	r3, [sp, #12]
 8001950:	3b01      	subs	r3, #1
 8001952:	b209      	sxth	r1, r1
 8001954:	b29c      	uxth	r4, r3
 8001956:	b21b      	sxth	r3, r3
 8001958:	b292      	uxth	r2, r2
 800195a:	9105      	str	r1, [sp, #20]
 800195c:	9303      	str	r3, [sp, #12]
 800195e:	f108 0801 	add.w	r8, r8, #1
 8001962:	fa1f f588 	uxth.w	r5, r8
 8001966:	eb02 0245 	add.w	r2, r2, r5, lsl #1
 800196a:	ebaa 0705 	sub.w	r7, sl, r5
 800196e:	eb0a 0605 	add.w	r6, sl, r5
 8001972:	b2bf      	uxth	r7, r7
 8001974:	b2b6      	uxth	r6, r6
 8001976:	3201      	adds	r2, #1
 8001978:	eb09 0304 	add.w	r3, r9, r4
 800197c:	42b7      	cmp	r7, r6
 800197e:	b212      	sxth	r2, r2
 8001980:	b29b      	uxth	r3, r3
 8001982:	9204      	str	r2, [sp, #16]
 8001984:	bf87      	ittee	hi
 8001986:	4630      	movhi	r0, r6
 8001988:	463a      	movhi	r2, r7
 800198a:	4632      	movls	r2, r6
 800198c:	4638      	movls	r0, r7
 800198e:	4619      	mov	r1, r3
 8001990:	f8cd b000 	str.w	fp, [sp]
 8001994:	f7ff fb1c 	bl	8000fd0 <ST7789_Fill>
 8001998:	eba9 0304 	sub.w	r3, r9, r4
 800199c:	42b7      	cmp	r7, r6
 800199e:	fa0f f888 	sxth.w	r8, r8
 80019a2:	b29b      	uxth	r3, r3
 80019a4:	d202      	bcs.n	80019ac <ST7789_DrawFilledCircle+0x11c>
 80019a6:	4632      	mov	r2, r6
 80019a8:	463e      	mov	r6, r7
 80019aa:	4617      	mov	r7, r2
 80019ac:	4619      	mov	r1, r3
 80019ae:	4630      	mov	r0, r6
 80019b0:	f8cd b000 	str.w	fp, [sp]
 80019b4:	eb0a 0604 	add.w	r6, sl, r4
 80019b8:	463a      	mov	r2, r7
 80019ba:	ebaa 0404 	sub.w	r4, sl, r4
 80019be:	f7ff fb07 	bl	8000fd0 <ST7789_Fill>
 80019c2:	b2b6      	uxth	r6, r6
 80019c4:	b2a4      	uxth	r4, r4
 80019c6:	eb09 0305 	add.w	r3, r9, r5
 80019ca:	b29b      	uxth	r3, r3
 80019cc:	42a6      	cmp	r6, r4
 80019ce:	f8cd b000 	str.w	fp, [sp]
 80019d2:	4619      	mov	r1, r3
 80019d4:	d8a2      	bhi.n	800191c <ST7789_DrawFilledCircle+0x8c>
 80019d6:	4622      	mov	r2, r4
 80019d8:	4630      	mov	r0, r6
 80019da:	f7ff faf9 	bl	8000fd0 <ST7789_Fill>
 80019de:	eba9 0305 	sub.w	r3, r9, r5
 80019e2:	b29b      	uxth	r3, r3
 80019e4:	4619      	mov	r1, r3
 80019e6:	f8cd b000 	str.w	fp, [sp]
 80019ea:	4622      	mov	r2, r4
 80019ec:	4630      	mov	r0, r6
 80019ee:	f7ff faef 	bl	8000fd0 <ST7789_Fill>
 80019f2:	9b03      	ldr	r3, [sp, #12]
 80019f4:	4543      	cmp	r3, r8
 80019f6:	dca2      	bgt.n	800193e <ST7789_DrawFilledCircle+0xae>
 80019f8:	b009      	add	sp, #36	; 0x24
 80019fa:	e8bd 8ff0 	ldmia.w	sp!, {r4, r5, r6, r7, r8, r9, sl, fp, pc}
 80019fe:	4d48      	ldr	r5, [pc, #288]	; (8001b20 <ST7789_DrawFilledCircle+0x290>)
 8001a00:	4619      	mov	r1, r3
 8001a02:	4652      	mov	r2, sl
 8001a04:	4650      	mov	r0, sl
 8001a06:	fa9b f69b 	rev16.w	r6, fp
 8001a0a:	f8ad 601c 	strh.w	r6, [sp, #28]
 8001a0e:	f7fe ff69 	bl	80008e4 <ST7789_SetAddressWindow>
 8001a12:	2304      	movs	r3, #4
 8001a14:	f04f 6280 	mov.w	r2, #67108864	; 0x4000000
 8001a18:	61ab      	str	r3, [r5, #24]
 8001a1a:	4842      	ldr	r0, [pc, #264]	; (8001b24 <ST7789_DrawFilledCircle+0x294>)
 8001a1c:	61aa      	str	r2, [r5, #24]
 8001a1e:	f04f 33ff 	mov.w	r3, #4294967295
 8001a22:	2202      	movs	r2, #2
 8001a24:	a907      	add	r1, sp, #28
 8001a26:	f001 fc41 	bl	80032ac <HAL_SPI_Transmit>
 8001a2a:	f44f 6380 	mov.w	r3, #1024	; 0x400
 8001a2e:	61ab      	str	r3, [r5, #24]
 8001a30:	eb04 050a 	add.w	r5, r4, sl
 8001a34:	b2ad      	uxth	r5, r5
 8001a36:	2def      	cmp	r5, #239	; 0xef
 8001a38:	f67f af56 	bls.w	80018e8 <ST7789_DrawFilledCircle+0x58>
 8001a3c:	ebaa 0404 	sub.w	r4, sl, r4
 8001a40:	b2a4      	uxth	r4, r4
 8001a42:	2cef      	cmp	r4, #239	; 0xef
 8001a44:	f63f af57 	bhi.w	80018f6 <ST7789_DrawFilledCircle+0x66>
 8001a48:	f1b9 0f86 	cmp.w	r9, #134	; 0x86
 8001a4c:	f63f af58 	bhi.w	8001900 <ST7789_DrawFilledCircle+0x70>
 8001a50:	ea4f 201b 	mov.w	r0, fp, lsr #8
 8001a54:	fa5f f78b 	uxtb.w	r7, fp
 8001a58:	ae07      	add	r6, sp, #28
 8001a5a:	e041      	b.n	8001ae0 <ST7789_DrawFilledCircle+0x250>
 8001a5c:	4619      	mov	r1, r3
 8001a5e:	4652      	mov	r2, sl
 8001a60:	4650      	mov	r0, sl
 8001a62:	fa9b f79b 	rev16.w	r7, fp
 8001a66:	f8ad 701c 	strh.w	r7, [sp, #28]
 8001a6a:	f7fe ff3b 	bl	80008e4 <ST7789_SetAddressWindow>
 8001a6e:	2304      	movs	r3, #4
 8001a70:	61ab      	str	r3, [r5, #24]
 8001a72:	482c      	ldr	r0, [pc, #176]	; (8001b24 <ST7789_DrawFilledCircle+0x294>)
 8001a74:	61ae      	str	r6, [r5, #24]
 8001a76:	f04f 33ff 	mov.w	r3, #4294967295
 8001a7a:	2202      	movs	r2, #2
 8001a7c:	a907      	add	r1, sp, #28
 8001a7e:	f001 fc15 	bl	80032ac <HAL_SPI_Transmit>
 8001a82:	f44f 6380 	mov.w	r3, #1024	; 0x400
 8001a86:	61ab      	str	r3, [r5, #24]
 8001a88:	eba9 0304 	sub.w	r3, r9, r4
 8001a8c:	b29b      	uxth	r3, r3
 8001a8e:	2b86      	cmp	r3, #134	; 0x86
 8001a90:	f63f af24 	bhi.w	80018dc <ST7789_DrawFilledCircle+0x4c>
 8001a94:	e7b3      	b.n	80019fe <ST7789_DrawFilledCircle+0x16e>
 8001a96:	4f22      	ldr	r7, [pc, #136]	; (8001b20 <ST7789_DrawFilledCircle+0x290>)
 8001a98:	fa9b f69b 	rev16.w	r6, fp
 8001a9c:	464b      	mov	r3, r9
 8001a9e:	462a      	mov	r2, r5
 8001aa0:	4649      	mov	r1, r9
 8001aa2:	4628      	mov	r0, r5
 8001aa4:	f8ad 601c 	strh.w	r6, [sp, #28]
 8001aa8:	ebaa 0404 	sub.w	r4, sl, r4
 8001aac:	f7fe ff1a 	bl	80008e4 <ST7789_SetAddressWindow>
 8001ab0:	ae07      	add	r6, sp, #28
 8001ab2:	2204      	movs	r2, #4
 8001ab4:	f04f 6380 	mov.w	r3, #67108864	; 0x4000000
 8001ab8:	61ba      	str	r2, [r7, #24]
 8001aba:	481a      	ldr	r0, [pc, #104]	; (8001b24 <ST7789_DrawFilledCircle+0x294>)
 8001abc:	61bb      	str	r3, [r7, #24]
 8001abe:	4631      	mov	r1, r6
 8001ac0:	f04f 33ff 	mov.w	r3, #4294967295
 8001ac4:	2202      	movs	r2, #2
 8001ac6:	b2a4      	uxth	r4, r4
 8001ac8:	f001 fbf0 	bl	80032ac <HAL_SPI_Transmit>
 8001acc:	f44f 6380 	mov.w	r3, #1024	; 0x400
 8001ad0:	2cef      	cmp	r4, #239	; 0xef
 8001ad2:	61bb      	str	r3, [r7, #24]
 8001ad4:	ea4f 201b 	mov.w	r0, fp, lsr #8
 8001ad8:	fa5f f78b 	uxtb.w	r7, fp
 8001adc:	f63f af0d 	bhi.w	80018fa <ST7789_DrawFilledCircle+0x6a>
 8001ae0:	464b      	mov	r3, r9
 8001ae2:	4622      	mov	r2, r4
 8001ae4:	4649      	mov	r1, r9
 8001ae6:	f88d 001c 	strb.w	r0, [sp, #28]
 8001aea:	f88d 701d 	strb.w	r7, [sp, #29]
 8001aee:	4620      	mov	r0, r4
 8001af0:	4f0b      	ldr	r7, [pc, #44]	; (8001b20 <ST7789_DrawFilledCircle+0x290>)
 8001af2:	f7fe fef7 	bl	80008e4 <ST7789_SetAddressWindow>
 8001af6:	2304      	movs	r3, #4
 8001af8:	f04f 6280 	mov.w	r2, #67108864	; 0x4000000
 8001afc:	61bb      	str	r3, [r7, #24]
 8001afe:	4809      	ldr	r0, [pc, #36]	; (8001b24 <ST7789_DrawFilledCircle+0x294>)
 8001b00:	61ba      	str	r2, [r7, #24]
 8001b02:	f04f 33ff 	mov.w	r3, #4294967295
 8001b06:	4631      	mov	r1, r6
 8001b08:	2202      	movs	r2, #2
 8001b0a:	f001 fbcf 	bl	80032ac <HAL_SPI_Transmit>
 8001b0e:	f44f 6380 	mov.w	r3, #1024	; 0x400
 8001b12:	61bb      	str	r3, [r7, #24]
 8001b14:	e6ef      	b.n	80018f6 <ST7789_DrawFilledCircle+0x66>
 8001b16:	f8bd 400c 	ldrh.w	r4, [sp, #12]
 8001b1a:	b29a      	uxth	r2, r3
 8001b1c:	e71f      	b.n	800195e <ST7789_DrawFilledCircle+0xce>
 8001b1e:	bf00      	nop
 8001b20:	40020400 	.word	0x40020400
 8001b24:	200000a4 	.word	0x200000a4

08001b28 <ST7789_Test>:
 8001b28:	e92d 4ff0 	stmdb	sp!, {r4, r5, r6, r7, r8, r9, sl, fp, lr}
 8001b2c:	f64f 70ff 	movw	r0, #65535	; 0xffff
 8001b30:	b087      	sub	sp, #28
 8001b32:	f7ff f815 	bl	8000b60 <ST7789_Fill.constprop.0>
 8001b36:	4bd2      	ldr	r3, [pc, #840]	; (8001e80 <ST7789_Test+0x358>)
 8001b38:	4fd2      	ldr	r7, [pc, #840]	; (8001e84 <ST7789_Test+0x35c>)
 8001b3a:	781e      	ldrb	r6, [r3, #0]
 8001b3c:	785d      	ldrb	r5, [r3, #1]
 8001b3e:	e893 0003 	ldmia.w	r3, {r0, r1}
 8001b42:	aa04      	add	r2, sp, #16
 8001b44:	e882 0003 	stmia.w	r2, {r0, r1}
 8001b48:	f04f 0a14 	mov.w	sl, #20
 8001b4c:	2246      	movs	r2, #70	; 0x46
 8001b4e:	200a      	movs	r0, #10
 8001b50:	f64f 79ff 	movw	r9, #65535	; 0xffff
 8001b54:	f44f 4878 	mov.w	r8, #63488	; 0xf800
 8001b58:	1984      	adds	r4, r0, r6
 8001b5a:	2cef      	cmp	r4, #239	; 0xef
 8001b5c:	eb0a 0305 	add.w	r3, sl, r5
 8001b60:	dd0a      	ble.n	8001b78 <ST7789_Test+0x50>
 8001b62:	fa1f fa83 	uxth.w	sl, r3
 8001b66:	eb0a 0305 	add.w	r3, sl, r5
 8001b6a:	2b86      	cmp	r3, #134	; 0x86
 8001b6c:	dc15      	bgt.n	8001b9a <ST7789_Test+0x72>
 8001b6e:	2a20      	cmp	r2, #32
 8001b70:	f04f 0000 	mov.w	r0, #0
 8001b74:	d00d      	beq.n	8001b92 <ST7789_Test+0x6a>
 8001b76:	4634      	mov	r4, r6
 8001b78:	f88d 6010 	strb.w	r6, [sp, #16]
 8001b7c:	f88d 5011 	strb.w	r5, [sp, #17]
 8001b80:	e9dd 3104 	ldrd	r3, r1, [sp, #16]
 8001b84:	e9cd 8901 	strd	r8, r9, [sp, #4]
 8001b88:	9100      	str	r1, [sp, #0]
 8001b8a:	4651      	mov	r1, sl
 8001b8c:	f7ff fdd6 	bl	800173c <ST7789_WriteChar>
 8001b90:	b2a0      	uxth	r0, r4
 8001b92:	f817 2b01 	ldrb.w	r2, [r7], #1
 8001b96:	2a00      	cmp	r2, #0
 8001b98:	d1de      	bne.n	8001b58 <ST7789_Test+0x30>
 8001b9a:	f44f 707a 	mov.w	r0, #1000	; 0x3e8
 8001b9e:	f000 fcbb 	bl	8002518 <HAL_Delay>
 8001ba2:	2400      	movs	r4, #0
 8001ba4:	02e0      	lsls	r0, r4, #11
 8001ba6:	f400 4078 	and.w	r0, r0, #63488	; 0xf800
 8001baa:	3401      	adds	r4, #1
 8001bac:	f7fe ffd8 	bl	8000b60 <ST7789_Fill.constprop.0>
 8001bb0:	2c20      	cmp	r4, #32
 8001bb2:	d1f7      	bne.n	8001ba4 <ST7789_Test+0x7c>
 8001bb4:	2400      	movs	r4, #0
 8001bb6:	f444 4078 	orr.w	r0, r4, #63488	; 0xf800
 8001bba:	3440      	adds	r4, #64	; 0x40
 8001bbc:	b2a4      	uxth	r4, r4
 8001bbe:	f7fe ffcf 	bl	8000b60 <ST7789_Fill.constprop.0>
 8001bc2:	f5b4 6f00 	cmp.w	r4, #2048	; 0x800
 8001bc6:	d1f6      	bne.n	8001bb6 <ST7789_Test+0x8e>
 8001bc8:	f44f 4460 	mov.w	r4, #57344	; 0xe000
 8001bcc:	f444 60fc 	orr.w	r0, r4, #2016	; 0x7e0
 8001bd0:	f5a4 6400 	sub.w	r4, r4, #2048	; 0x800
 8001bd4:	b2a4      	uxth	r4, r4
 8001bd6:	f7fe ffc3 	bl	8000b60 <ST7789_Fill.constprop.0>
 8001bda:	2c00      	cmp	r4, #0
 8001bdc:	d1f6      	bne.n	8001bcc <ST7789_Test+0xa4>
 8001bde:	f444 60fc 	orr.w	r0, r4, #2016	; 0x7e0
 8001be2:	b280      	uxth	r0, r0
 8001be4:	3401      	adds	r4, #1
 8001be6:	f7fe ffbb 	bl	8000b60 <ST7789_Fill.constprop.0>
 8001bea:	2c20      	cmp	r4, #32
 8001bec:	d1f7      	bne.n	8001bde <ST7789_Test+0xb6>
 8001bee:	f44f 64e0 	mov.w	r4, #1792	; 0x700
 8001bf2:	f044 001f 	orr.w	r0, r4, #31
 8001bf6:	3c40      	subs	r4, #64	; 0x40
 8001bf8:	b2a4      	uxth	r4, r4
 8001bfa:	f7fe ffb1 	bl	8000b60 <ST7789_Fill.constprop.0>
 8001bfe:	2c00      	cmp	r4, #0
 8001c00:	d1f7      	bne.n	8001bf2 <ST7789_Test+0xca>
 8001c02:	02e0      	lsls	r0, r4, #11
 8001c04:	f400 4078 	and.w	r0, r0, #63488	; 0xf800
 8001c08:	f040 001f 	orr.w	r0, r0, #31
 8001c0c:	3401      	adds	r4, #1
 8001c0e:	f7fe ffa7 	bl	8000b60 <ST7789_Fill.constprop.0>
 8001c12:	2c20      	cmp	r4, #32
 8001c14:	d1f5      	bne.n	8001c02 <ST7789_Test+0xda>
 8001c16:	2400      	movs	r4, #0
 8001c18:	f444 4078 	orr.w	r0, r4, #63488	; 0xf800
 8001c1c:	3440      	adds	r4, #64	; 0x40
 8001c1e:	f040 001f 	orr.w	r0, r0, #31
 8001c22:	b2a4      	uxth	r4, r4
 8001c24:	f7fe ff9c 	bl	8000b60 <ST7789_Fill.constprop.0>
 8001c28:	f5b4 6f00 	cmp.w	r4, #2048	; 0x800
 8001c2c:	d1f4      	bne.n	8001c18 <ST7789_Test+0xf0>
 8001c2e:	f44f 4078 	mov.w	r0, #63488	; 0xf800
 8001c32:	f7fe ff95 	bl	8000b60 <ST7789_Fill.constprop.0>
 8001c36:	f44f 70fa 	mov.w	r0, #500	; 0x1f4
 8001c3a:	f000 fc6d 	bl	8002518 <HAL_Delay>
 8001c3e:	f44f 60fc 	mov.w	r0, #2016	; 0x7e0
 8001c42:	f7fe ff8d 	bl	8000b60 <ST7789_Fill.constprop.0>
 8001c46:	f44f 70fa 	mov.w	r0, #500	; 0x1f4
 8001c4a:	f000 fc65 	bl	8002518 <HAL_Delay>
 8001c4e:	201f      	movs	r0, #31
 8001c50:	f7fe ff86 	bl	8000b60 <ST7789_Fill.constprop.0>
 8001c54:	f44f 70fa 	mov.w	r0, #500	; 0x1f4
 8001c58:	f000 fc5e 	bl	8002518 <HAL_Delay>
 8001c5c:	2000      	movs	r0, #0
 8001c5e:	f7fe ff7f 	bl	8000b60 <ST7789_Fill.constprop.0>
 8001c62:	f44f 70fa 	mov.w	r0, #500	; 0x1f4
 8001c66:	f000 fc57 	bl	8002518 <HAL_Delay>
 8001c6a:	f000 fc4f 	bl	800250c <HAL_GetTick>
 8001c6e:	4c86      	ldr	r4, [pc, #536]	; (8001e88 <ST7789_Test+0x360>)
 8001c70:	4f86      	ldr	r7, [pc, #536]	; (8001e8c <ST7789_Test+0x364>)
 8001c72:	4603      	mov	r3, r0
 8001c74:	f64f 70ff 	movw	r0, #65535	; 0xffff
 8001c78:	6023      	str	r3, [r4, #0]
 8001c7a:	f7fe ff71 	bl	8000b60 <ST7789_Fill.constprop.0>
 8001c7e:	f7ff fdbb 	bl	80017f8 <printTime>
 8001c82:	f44f 707a 	mov.w	r0, #1000	; 0x3e8
 8001c86:	f000 fc47 	bl	8002518 <HAL_Delay>
 8001c8a:	f248 4030 	movw	r0, #33840	; 0x8430
 8001c8e:	f7fe ff67 	bl	8000b60 <ST7789_Fill.constprop.0>
 8001c92:	f000 fc3b 	bl	800250c <HAL_GetTick>
 8001c96:	4a7a      	ldr	r2, [pc, #488]	; (8001e80 <ST7789_Test+0x358>)
 8001c98:	4603      	mov	r3, r0
 8001c9a:	e892 0003 	ldmia.w	r2, {r0, r1}
 8001c9e:	ad04      	add	r5, sp, #16
 8001ca0:	f04f 0a0a 	mov.w	sl, #10
 8001ca4:	e885 0003 	stmia.w	r5, {r0, r1}
 8001ca8:	7816      	ldrb	r6, [r2, #0]
 8001caa:	7855      	ldrb	r5, [r2, #1]
 8001cac:	6023      	str	r3, [r4, #0]
 8001cae:	4650      	mov	r0, sl
 8001cb0:	2246      	movs	r2, #70	; 0x46
 8001cb2:	f248 4930 	movw	r9, #33840	; 0x8430
 8001cb6:	f240 78ff 	movw	r8, #2047	; 0x7ff
 8001cba:	1984      	adds	r4, r0, r6
 8001cbc:	2cef      	cmp	r4, #239	; 0xef
 8001cbe:	eb0a 0305 	add.w	r3, sl, r5
 8001cc2:	dd0a      	ble.n	8001cda <ST7789_Test+0x1b2>
 8001cc4:	fa1f fa83 	uxth.w	sl, r3
 8001cc8:	eb0a 0305 	add.w	r3, sl, r5
 8001ccc:	2b86      	cmp	r3, #134	; 0x86
 8001cce:	dc15      	bgt.n	8001cfc <ST7789_Test+0x1d4>
 8001cd0:	2a20      	cmp	r2, #32
 8001cd2:	f04f 0000 	mov.w	r0, #0
 8001cd6:	d00d      	beq.n	8001cf4 <ST7789_Test+0x1cc>
 8001cd8:	4634      	mov	r4, r6
 8001cda:	f88d 6010 	strb.w	r6, [sp, #16]
 8001cde:	f88d 5011 	strb.w	r5, [sp, #17]
 8001ce2:	e9dd 3104 	ldrd	r3, r1, [sp, #16]
 8001ce6:	e9cd 8901 	strd	r8, r9, [sp, #4]
 8001cea:	9100      	str	r1, [sp, #0]
 8001cec:	4651      	mov	r1, sl
 8001cee:	f7ff fd25 	bl	800173c <ST7789_WriteChar>
 8001cf2:	b2a0      	uxth	r0, r4
 8001cf4:	f817 2b01 	ldrb.w	r2, [r7], #1
 8001cf8:	2a00      	cmp	r2, #0
 8001cfa:	d1de      	bne.n	8001cba <ST7789_Test+0x192>
 8001cfc:	4b60      	ldr	r3, [pc, #384]	; (8001e80 <ST7789_Test+0x358>)
 8001cfe:	4f64      	ldr	r7, [pc, #400]	; (8001e90 <ST7789_Test+0x368>)
 8001d00:	781e      	ldrb	r6, [r3, #0]
 8001d02:	785d      	ldrb	r5, [r3, #1]
 8001d04:	e893 0003 	ldmia.w	r3, {r0, r1}
 8001d08:	ab04      	add	r3, sp, #16
 8001d0a:	e883 0003 	stmia.w	r3, {r0, r1}
 8001d0e:	46b8      	mov	r8, r7
 8001d10:	2248      	movs	r2, #72	; 0x48
 8001d12:	f04f 0b32 	mov.w	fp, #50	; 0x32
 8001d16:	200a      	movs	r0, #10
 8001d18:	f248 4a30 	movw	sl, #33840	; 0x8430
 8001d1c:	f44f 4978 	mov.w	r9, #63488	; 0xf800
 8001d20:	1984      	adds	r4, r0, r6
 8001d22:	2cef      	cmp	r4, #239	; 0xef
 8001d24:	eb0b 0305 	add.w	r3, fp, r5
 8001d28:	dd0a      	ble.n	8001d40 <ST7789_Test+0x218>
 8001d2a:	fa1f fb83 	uxth.w	fp, r3
 8001d2e:	eb0b 0305 	add.w	r3, fp, r5
 8001d32:	2b86      	cmp	r3, #134	; 0x86
 8001d34:	dc15      	bgt.n	8001d62 <ST7789_Test+0x23a>
 8001d36:	2a20      	cmp	r2, #32
 8001d38:	f04f 0000 	mov.w	r0, #0
 8001d3c:	d00d      	beq.n	8001d5a <ST7789_Test+0x232>
 8001d3e:	4634      	mov	r4, r6
 8001d40:	f88d 6010 	strb.w	r6, [sp, #16]
 8001d44:	f88d 5011 	strb.w	r5, [sp, #17]
 8001d48:	e9dd 3104 	ldrd	r3, r1, [sp, #16]
 8001d4c:	e9cd 9a01 	strd	r9, sl, [sp, #4]
 8001d50:	9100      	str	r1, [sp, #0]
 8001d52:	4659      	mov	r1, fp
 8001d54:	f7ff fcf2 	bl	800173c <ST7789_WriteChar>
 8001d58:	b2a0      	uxth	r0, r4
 8001d5a:	f818 2b01 	ldrb.w	r2, [r8], #1
 8001d5e:	2a00      	cmp	r2, #0
 8001d60:	d1de      	bne.n	8001d20 <ST7789_Test+0x1f8>
 8001d62:	4b47      	ldr	r3, [pc, #284]	; (8001e80 <ST7789_Test+0x358>)
 8001d64:	f8df 8128 	ldr.w	r8, [pc, #296]	; 8001e90 <ST7789_Test+0x368>
 8001d68:	781e      	ldrb	r6, [r3, #0]
 8001d6a:	785d      	ldrb	r5, [r3, #1]
 8001d6c:	e893 0003 	ldmia.w	r3, {r0, r1}
 8001d70:	ab04      	add	r3, sp, #16
 8001d72:	e883 0003 	stmia.w	r3, {r0, r1}
 8001d76:	2248      	movs	r2, #72	; 0x48
 8001d78:	f04f 0b4b 	mov.w	fp, #75	; 0x4b
 8001d7c:	200a      	movs	r0, #10
 8001d7e:	f248 4a30 	movw	sl, #33840	; 0x8430
 8001d82:	f64f 79e0 	movw	r9, #65504	; 0xffe0
 8001d86:	1984      	adds	r4, r0, r6
 8001d88:	2cef      	cmp	r4, #239	; 0xef
 8001d8a:	eb0b 0305 	add.w	r3, fp, r5
 8001d8e:	dd0a      	ble.n	8001da6 <ST7789_Test+0x27e>
 8001d90:	fa1f fb83 	uxth.w	fp, r3
 8001d94:	eb0b 0305 	add.w	r3, fp, r5
 8001d98:	2b86      	cmp	r3, #134	; 0x86
 8001d9a:	dc15      	bgt.n	8001dc8 <ST7789_Test+0x2a0>
 8001d9c:	2a20      	cmp	r2, #32
 8001d9e:	f04f 0000 	mov.w	r0, #0
 8001da2:	d00d      	beq.n	8001dc0 <ST7789_Test+0x298>
 8001da4:	4634      	mov	r4, r6
 8001da6:	f88d 6010 	strb.w	r6, [sp, #16]
 8001daa:	f88d 5011 	strb.w	r5, [sp, #17]
 8001dae:	e9dd 3104 	ldrd	r3, r1, [sp, #16]
 8001db2:	e9cd 9a01 	strd	r9, sl, [sp, #4]
 8001db6:	9100      	str	r1, [sp, #0]
 8001db8:	4659      	mov	r1, fp
 8001dba:	f7ff fcbf 	bl	800173c <ST7789_WriteChar>
 8001dbe:	b2a0      	uxth	r0, r4
 8001dc0:	f818 2b01 	ldrb.w	r2, [r8], #1
 8001dc4:	2a00      	cmp	r2, #0
 8001dc6:	d1de      	bne.n	8001d86 <ST7789_Test+0x25e>
 8001dc8:	4b2d      	ldr	r3, [pc, #180]	; (8001e80 <ST7789_Test+0x358>)
 8001dca:	e893 0003 	ldmia.w	r3, {r0, r1}
 8001dce:	781e      	ldrb	r6, [r3, #0]
 8001dd0:	785d      	ldrb	r5, [r3, #1]
 8001dd2:	ab04      	add	r3, sp, #16
 8001dd4:	e883 0003 	stmia.w	r3, {r0, r1}
 8001dd8:	2248      	movs	r2, #72	; 0x48
 8001dda:	f04f 0a64 	mov.w	sl, #100	; 0x64
 8001dde:	200a      	movs	r0, #10
 8001de0:	f248 4930 	movw	r9, #33840	; 0x8430
 8001de4:	f64f 081f 	movw	r8, #63519	; 0xf81f
 8001de8:	1984      	adds	r4, r0, r6
 8001dea:	2cef      	cmp	r4, #239	; 0xef
 8001dec:	eb0a 0305 	add.w	r3, sl, r5
 8001df0:	dd0a      	ble.n	8001e08 <ST7789_Test+0x2e0>
 8001df2:	fa1f fa83 	uxth.w	sl, r3
 8001df6:	eb0a 0305 	add.w	r3, sl, r5
 8001dfa:	2b86      	cmp	r3, #134	; 0x86
 8001dfc:	dc15      	bgt.n	8001e2a <ST7789_Test+0x302>
 8001dfe:	2a20      	cmp	r2, #32
 8001e00:	f04f 0000 	mov.w	r0, #0
 8001e04:	d00d      	beq.n	8001e22 <ST7789_Test+0x2fa>
 8001e06:	4634      	mov	r4, r6
 8001e08:	f88d 6010 	strb.w	r6, [sp, #16]
 8001e0c:	f88d 5011 	strb.w	r5, [sp, #17]
 8001e10:	e9dd 3104 	ldrd	r3, r1, [sp, #16]
 8001e14:	e9cd 8901 	strd	r8, r9, [sp, #4]
 8001e18:	9100      	str	r1, [sp, #0]
 8001e1a:	4651      	mov	r1, sl
 8001e1c:	f7ff fc8e 	bl	800173c <ST7789_WriteChar>
 8001e20:	b2a0      	uxth	r0, r4
 8001e22:	f817 2b01 	ldrb.w	r2, [r7], #1
 8001e26:	2a00      	cmp	r2, #0
 8001e28:	d1de      	bne.n	8001de8 <ST7789_Test+0x2c0>
 8001e2a:	f7ff fce5 	bl	80017f8 <printTime>
 8001e2e:	f44f 707a 	mov.w	r0, #1000	; 0x3e8
 8001e32:	f000 fb71 	bl	8002518 <HAL_Delay>
 8001e36:	f44f 4078 	mov.w	r0, #63488	; 0xf800
 8001e3a:	f7fe fe91 	bl	8000b60 <ST7789_Fill.constprop.0>
 8001e3e:	4b10      	ldr	r3, [pc, #64]	; (8001e80 <ST7789_Test+0x358>)
 8001e40:	f8df 8050 	ldr.w	r8, [pc, #80]	; 8001e94 <ST7789_Test+0x36c>
 8001e44:	781f      	ldrb	r7, [r3, #0]
 8001e46:	785e      	ldrb	r6, [r3, #1]
 8001e48:	e893 0003 	ldmia.w	r3, {r0, r1}
 8001e4c:	aa04      	add	r2, sp, #16
 8001e4e:	240a      	movs	r4, #10
 8001e50:	e882 0003 	stmia.w	r2, {r0, r1}
 8001e54:	f44f 4a78 	mov.w	sl, #63488	; 0xf800
 8001e58:	4620      	mov	r0, r4
 8001e5a:	2252      	movs	r2, #82	; 0x52
 8001e5c:	f64f 79e0 	movw	r9, #65504	; 0xffe0
 8001e60:	19c5      	adds	r5, r0, r7
 8001e62:	2def      	cmp	r5, #239	; 0xef
 8001e64:	eb04 0306 	add.w	r3, r4, r6
 8001e68:	dd16      	ble.n	8001e98 <ST7789_Test+0x370>
 8001e6a:	b29c      	uxth	r4, r3
 8001e6c:	19a3      	adds	r3, r4, r6
 8001e6e:	2b86      	cmp	r3, #134	; 0x86
 8001e70:	dc23      	bgt.n	8001eba <ST7789_Test+0x392>
 8001e72:	2a20      	cmp	r2, #32
 8001e74:	f04f 0000 	mov.w	r0, #0
 8001e78:	d01b      	beq.n	8001eb2 <ST7789_Test+0x38a>
 8001e7a:	463d      	mov	r5, r7
 8001e7c:	e00c      	b.n	8001e98 <ST7789_Test+0x370>
 8001e7e:	bf00      	nop
 8001e80:	20000004 	.word	0x20000004
 8001e84:	0800f50d 	.word	0x0800f50d
 8001e88:	20000098 	.word	0x20000098
 8001e8c:	0800f51d 	.word	0x0800f51d
 8001e90:	0800f529 	.word	0x0800f529
 8001e94:	0800f539 	.word	0x0800f539
 8001e98:	f88d 7010 	strb.w	r7, [sp, #16]
 8001e9c:	f88d 6011 	strb.w	r6, [sp, #17]
 8001ea0:	e9dd 3104 	ldrd	r3, r1, [sp, #16]
 8001ea4:	e9cd 9a01 	strd	r9, sl, [sp, #4]
 8001ea8:	9100      	str	r1, [sp, #0]
 8001eaa:	4621      	mov	r1, r4
 8001eac:	f7ff fc46 	bl	800173c <ST7789_WriteChar>
 8001eb0:	b2a8      	uxth	r0, r5
 8001eb2:	f818 2b01 	ldrb.w	r2, [r8], #1
 8001eb6:	2a00      	cmp	r2, #0
 8001eb8:	d1d2      	bne.n	8001e60 <ST7789_Test+0x338>
 8001eba:	f000 fb27 	bl	800250c <HAL_GetTick>
 8001ebe:	4ed2      	ldr	r6, [pc, #840]	; (8002208 <ST7789_Test+0x6e0>)
 8001ec0:	f8df 8354 	ldr.w	r8, [pc, #852]	; 8002218 <ST7789_Test+0x6f0>
 8001ec4:	f64f 74ff 	movw	r4, #65535	; 0xffff
 8001ec8:	231e      	movs	r3, #30
 8001eca:	4605      	mov	r5, r0
 8001ecc:	9400      	str	r4, [sp, #0]
 8001ece:	4619      	mov	r1, r3
 8001ed0:	4618      	mov	r0, r3
 8001ed2:	2264      	movs	r2, #100	; 0x64
 8001ed4:	6035      	str	r5, [r6, #0]
 8001ed6:	f7ff f87b 	bl	8000fd0 <ST7789_Fill>
 8001eda:	2364      	movs	r3, #100	; 0x64
 8001edc:	461a      	mov	r2, r3
 8001ede:	4619      	mov	r1, r3
 8001ee0:	9400      	str	r4, [sp, #0]
 8001ee2:	201e      	movs	r0, #30
 8001ee4:	f7ff f874 	bl	8000fd0 <ST7789_Fill>
 8001ee8:	221e      	movs	r2, #30
 8001eea:	4611      	mov	r1, r2
 8001eec:	4610      	mov	r0, r2
 8001eee:	9400      	str	r4, [sp, #0]
 8001ef0:	2364      	movs	r3, #100	; 0x64
 8001ef2:	f7ff f86d 	bl	8000fd0 <ST7789_Fill>
 8001ef6:	2364      	movs	r3, #100	; 0x64
 8001ef8:	461a      	mov	r2, r3
 8001efa:	4618      	mov	r0, r3
 8001efc:	211e      	movs	r1, #30
 8001efe:	9400      	str	r4, [sp, #0]
 8001f00:	f7ff f866 	bl	8000fd0 <ST7789_Fill>
 8001f04:	f7ff fc78 	bl	80017f8 <printTime>
 8001f08:	f44f 707a 	mov.w	r0, #1000	; 0x3e8
 8001f0c:	f000 fb04 	bl	8002518 <HAL_Delay>
 8001f10:	f44f 4078 	mov.w	r0, #63488	; 0xf800
 8001f14:	f7fe fe24 	bl	8000b60 <ST7789_Fill.constprop.0>
 8001f18:	4bbc      	ldr	r3, [pc, #752]	; (800220c <ST7789_Test+0x6e4>)
 8001f1a:	e893 0003 	ldmia.w	r3, {r0, r1}
 8001f1e:	aa04      	add	r2, sp, #16
 8001f20:	240a      	movs	r4, #10
 8001f22:	781f      	ldrb	r7, [r3, #0]
 8001f24:	785e      	ldrb	r6, [r3, #1]
 8001f26:	e882 0003 	stmia.w	r2, {r0, r1}
 8001f2a:	f44f 4a78 	mov.w	sl, #63488	; 0xf800
 8001f2e:	4620      	mov	r0, r4
 8001f30:	2246      	movs	r2, #70	; 0x46
 8001f32:	f64f 79e0 	movw	r9, #65504	; 0xffe0
 8001f36:	19c5      	adds	r5, r0, r7
 8001f38:	2def      	cmp	r5, #239	; 0xef
 8001f3a:	eb04 0306 	add.w	r3, r4, r6
 8001f3e:	dd08      	ble.n	8001f52 <ST7789_Test+0x42a>
 8001f40:	b29c      	uxth	r4, r3
 8001f42:	19a3      	adds	r3, r4, r6
 8001f44:	2b86      	cmp	r3, #134	; 0x86
 8001f46:	dc15      	bgt.n	8001f74 <ST7789_Test+0x44c>
 8001f48:	2a20      	cmp	r2, #32
 8001f4a:	f04f 0000 	mov.w	r0, #0
 8001f4e:	d00d      	beq.n	8001f6c <ST7789_Test+0x444>
 8001f50:	463d      	mov	r5, r7
 8001f52:	f88d 7010 	strb.w	r7, [sp, #16]
 8001f56:	f88d 6011 	strb.w	r6, [sp, #17]
 8001f5a:	e9dd 3104 	ldrd	r3, r1, [sp, #16]
 8001f5e:	e9cd 9a01 	strd	r9, sl, [sp, #4]
 8001f62:	9100      	str	r1, [sp, #0]
 8001f64:	4621      	mov	r1, r4
 8001f66:	f7ff fbe9 	bl	800173c <ST7789_WriteChar>
 8001f6a:	b2a8      	uxth	r0, r5
 8001f6c:	f818 2b01 	ldrb.w	r2, [r8], #1
 8001f70:	2a00      	cmp	r2, #0
 8001f72:	d1e0      	bne.n	8001f36 <ST7789_Test+0x40e>
 8001f74:	f000 faca 	bl	800250c <HAL_GetTick>
 8001f78:	4aa3      	ldr	r2, [pc, #652]	; (8002208 <ST7789_Test+0x6e0>)
 8001f7a:	4fa5      	ldr	r7, [pc, #660]	; (8002210 <ST7789_Test+0x6e8>)
 8001f7c:	6010      	str	r0, [r2, #0]
 8001f7e:	234f      	movs	r3, #79	; 0x4f
 8001f80:	211e      	movs	r1, #30
 8001f82:	461a      	mov	r2, r3
 8001f84:	4608      	mov	r0, r1
 8001f86:	f64f 74ff 	movw	r4, #65535	; 0xffff
 8001f8a:	f8ad 4010 	strh.w	r4, [sp, #16]
 8001f8e:	f7fe fca9 	bl	80008e4 <ST7789_SetAddressWindow>
 8001f92:	f44f 6400 	mov.w	r4, #2048	; 0x800
 8001f96:	4638      	mov	r0, r7
 8001f98:	60fc      	str	r4, [r7, #12]
 8001f9a:	f001 f927 	bl	80031ec <HAL_SPI_Init>
 8001f9e:	6cb8      	ldr	r0, [r7, #72]	; 0x48
 8001fa0:	6802      	ldr	r2, [r0, #0]
 8001fa2:	6813      	ldr	r3, [r2, #0]
 8001fa4:	f023 0301 	bic.w	r3, r3, #1
 8001fa8:	6013      	str	r3, [r2, #0]
 8001faa:	2100      	movs	r1, #0
 8001fac:	f44f 5300 	mov.w	r3, #8192	; 0x2000
 8001fb0:	e9c0 1404 	strd	r1, r4, [r0, #16]
 8001fb4:	6183      	str	r3, [r0, #24]
 8001fb6:	f000 fb35 	bl	8002624 <HAL_DMA_Init>
 8001fba:	4b96      	ldr	r3, [pc, #600]	; (8002214 <ST7789_Test+0x6ec>)
 8001fbc:	f04f 6180 	mov.w	r1, #67108864	; 0x4000000
 8001fc0:	2204      	movs	r2, #4
 8001fc2:	6199      	str	r1, [r3, #24]
 8001fc4:	4638      	mov	r0, r7
 8001fc6:	619a      	str	r2, [r3, #24]
 8001fc8:	a904      	add	r1, sp, #16
 8001fca:	f640 12c4 	movw	r2, #2500	; 0x9c4
 8001fce:	f001 fa91 	bl	80034f4 <HAL_SPI_Transmit_DMA>
 8001fd2:	6cbb      	ldr	r3, [r7, #72]	; 0x48
 8001fd4:	f893 3035 	ldrb.w	r3, [r3, #53]	; 0x35
 8001fd8:	2b01      	cmp	r3, #1
 8001fda:	d005      	beq.n	8001fe8 <ST7789_Test+0x4c0>
 8001fdc:	bf00      	nop
 8001fde:	6cbb      	ldr	r3, [r7, #72]	; 0x48
 8001fe0:	f893 3035 	ldrb.w	r3, [r3, #53]	; 0x35
 8001fe4:	2b01      	cmp	r3, #1
 8001fe6:	d1f9      	bne.n	8001fdc <ST7789_Test+0x4b4>
 8001fe8:	4b8a      	ldr	r3, [pc, #552]	; (8002214 <ST7789_Test+0x6ec>)
 8001fea:	4889      	ldr	r0, [pc, #548]	; (8002210 <ST7789_Test+0x6e8>)
 8001fec:	f8df 922c 	ldr.w	r9, [pc, #556]	; 800221c <ST7789_Test+0x6f4>
 8001ff0:	f44f 6280 	mov.w	r2, #1024	; 0x400
 8001ff4:	619a      	str	r2, [r3, #24]
 8001ff6:	2300      	movs	r3, #0
 8001ff8:	60fb      	str	r3, [r7, #12]
 8001ffa:	f001 f8f7 	bl	80031ec <HAL_SPI_Init>
 8001ffe:	f7ff fbfb 	bl	80017f8 <printTime>
 8002002:	f44f 707a 	mov.w	r0, #1000	; 0x3e8
 8002006:	f000 fa87 	bl	8002518 <HAL_Delay>
 800200a:	f44f 4078 	mov.w	r0, #63488	; 0xf800
 800200e:	f7fe fda7 	bl	8000b60 <ST7789_Fill.constprop.0>
 8002012:	4b7e      	ldr	r3, [pc, #504]	; (800220c <ST7789_Test+0x6e4>)
 8002014:	e893 0003 	ldmia.w	r3, {r0, r1}
 8002018:	aa04      	add	r2, sp, #16
 800201a:	240a      	movs	r4, #10
 800201c:	f893 8000 	ldrb.w	r8, [r3]
 8002020:	785e      	ldrb	r6, [r3, #1]
 8002022:	e882 0003 	stmia.w	r2, {r0, r1}
 8002026:	f44f 4b78 	mov.w	fp, #63488	; 0xf800
 800202a:	4620      	mov	r0, r4
 800202c:	2243      	movs	r2, #67	; 0x43
 800202e:	f64f 7ae0 	movw	sl, #65504	; 0xffe0
 8002032:	eb00 0508 	add.w	r5, r0, r8
 8002036:	2def      	cmp	r5, #239	; 0xef
 8002038:	eb04 0306 	add.w	r3, r4, r6
 800203c:	dd08      	ble.n	8002050 <ST7789_Test+0x528>
 800203e:	b29c      	uxth	r4, r3
 8002040:	19a3      	adds	r3, r4, r6
 8002042:	2b86      	cmp	r3, #134	; 0x86
 8002044:	dc15      	bgt.n	8002072 <ST7789_Test+0x54a>
 8002046:	2a20      	cmp	r2, #32
 8002048:	f04f 0000 	mov.w	r0, #0
 800204c:	d00d      	beq.n	800206a <ST7789_Test+0x542>
 800204e:	4645      	mov	r5, r8
 8002050:	f88d 8010 	strb.w	r8, [sp, #16]
 8002054:	f88d 6011 	strb.w	r6, [sp, #17]
 8002058:	e9dd 3104 	ldrd	r3, r1, [sp, #16]
 800205c:	e9cd ab01 	strd	sl, fp, [sp, #4]
 8002060:	9100      	str	r1, [sp, #0]
 8002062:	4621      	mov	r1, r4
 8002064:	f7ff fb6a 	bl	800173c <ST7789_WriteChar>
 8002068:	b2a8      	uxth	r0, r5
 800206a:	f819 2b01 	ldrb.w	r2, [r9], #1
 800206e:	2a00      	cmp	r2, #0
 8002070:	d1df      	bne.n	8002032 <ST7789_Test+0x50a>
 8002072:	f000 fa4b 	bl	800250c <HAL_GetTick>
 8002076:	4d64      	ldr	r5, [pc, #400]	; (8002208 <ST7789_Test+0x6e0>)
 8002078:	f8df 91a4 	ldr.w	r9, [pc, #420]	; 8002220 <ST7789_Test+0x6f8>
 800207c:	213c      	movs	r1, #60	; 0x3c
 800207e:	f64f 73ff 	movw	r3, #65535	; 0xffff
 8002082:	2219      	movs	r2, #25
 8002084:	4604      	mov	r4, r0
 8002086:	4608      	mov	r0, r1
 8002088:	602c      	str	r4, [r5, #0]
 800208a:	f7ff f8bd 	bl	8001208 <ST7789_DrawCircle>
 800208e:	f7ff fbb3 	bl	80017f8 <printTime>
 8002092:	f44f 707a 	mov.w	r0, #1000	; 0x3e8
 8002096:	f000 fa3f 	bl	8002518 <HAL_Delay>
 800209a:	f44f 4078 	mov.w	r0, #63488	; 0xf800
 800209e:	f7fe fd5f 	bl	8000b60 <ST7789_Fill.constprop.0>
 80020a2:	4b5a      	ldr	r3, [pc, #360]	; (800220c <ST7789_Test+0x6e4>)
 80020a4:	e893 0003 	ldmia.w	r3, {r0, r1}
 80020a8:	aa04      	add	r2, sp, #16
 80020aa:	240a      	movs	r4, #10
 80020ac:	f893 8000 	ldrb.w	r8, [r3]
 80020b0:	785e      	ldrb	r6, [r3, #1]
 80020b2:	e882 0003 	stmia.w	r2, {r0, r1}
 80020b6:	f44f 4b78 	mov.w	fp, #63488	; 0xf800
 80020ba:	4620      	mov	r0, r4
 80020bc:	2246      	movs	r2, #70	; 0x46
 80020be:	f64f 7ae0 	movw	sl, #65504	; 0xffe0
 80020c2:	eb00 0508 	add.w	r5, r0, r8
 80020c6:	2def      	cmp	r5, #239	; 0xef
 80020c8:	eb04 0306 	add.w	r3, r4, r6
 80020cc:	dd08      	ble.n	80020e0 <ST7789_Test+0x5b8>
 80020ce:	b29c      	uxth	r4, r3
 80020d0:	19a3      	adds	r3, r4, r6
 80020d2:	2b86      	cmp	r3, #134	; 0x86
 80020d4:	dc15      	bgt.n	8002102 <ST7789_Test+0x5da>
 80020d6:	2a20      	cmp	r2, #32
 80020d8:	f04f 0000 	mov.w	r0, #0
 80020dc:	d00d      	beq.n	80020fa <ST7789_Test+0x5d2>
 80020de:	4645      	mov	r5, r8
 80020e0:	f88d 8010 	strb.w	r8, [sp, #16]
 80020e4:	f88d 6011 	strb.w	r6, [sp, #17]
 80020e8:	e9dd 3104 	ldrd	r3, r1, [sp, #16]
 80020ec:	e9cd ab01 	strd	sl, fp, [sp, #4]
 80020f0:	9100      	str	r1, [sp, #0]
 80020f2:	4621      	mov	r1, r4
 80020f4:	f7ff fb22 	bl	800173c <ST7789_WriteChar>
 80020f8:	b2a8      	uxth	r0, r5
 80020fa:	f819 2b01 	ldrb.w	r2, [r9], #1
 80020fe:	2a00      	cmp	r2, #0
 8002100:	d1df      	bne.n	80020c2 <ST7789_Test+0x59a>
 8002102:	f000 fa03 	bl	800250c <HAL_GetTick>
 8002106:	4d40      	ldr	r5, [pc, #256]	; (8002208 <ST7789_Test+0x6e0>)
 8002108:	f8df 9118 	ldr.w	r9, [pc, #280]	; 8002224 <ST7789_Test+0x6fc>
 800210c:	213c      	movs	r1, #60	; 0x3c
 800210e:	f64f 73ff 	movw	r3, #65535	; 0xffff
 8002112:	2219      	movs	r2, #25
 8002114:	4604      	mov	r4, r0
 8002116:	4608      	mov	r0, r1
 8002118:	602c      	str	r4, [r5, #0]
 800211a:	f7ff fbb9 	bl	8001890 <ST7789_DrawFilledCircle>
 800211e:	f7ff fb6b 	bl	80017f8 <printTime>
 8002122:	f7ff fb69 	bl	80017f8 <printTime>
 8002126:	f44f 707a 	mov.w	r0, #1000	; 0x3e8
 800212a:	f000 f9f5 	bl	8002518 <HAL_Delay>
 800212e:	f44f 4078 	mov.w	r0, #63488	; 0xf800
 8002132:	f7fe fd15 	bl	8000b60 <ST7789_Fill.constprop.0>
 8002136:	4b35      	ldr	r3, [pc, #212]	; (800220c <ST7789_Test+0x6e4>)
 8002138:	e893 0003 	ldmia.w	r3, {r0, r1}
 800213c:	aa04      	add	r2, sp, #16
 800213e:	240a      	movs	r4, #10
 8002140:	f893 8000 	ldrb.w	r8, [r3]
 8002144:	785e      	ldrb	r6, [r3, #1]
 8002146:	e882 0003 	stmia.w	r2, {r0, r1}
 800214a:	f44f 4b78 	mov.w	fp, #63488	; 0xf800
 800214e:	4620      	mov	r0, r4
 8002150:	2254      	movs	r2, #84	; 0x54
 8002152:	f64f 7ae0 	movw	sl, #65504	; 0xffe0
 8002156:	eb00 0508 	add.w	r5, r0, r8
 800215a:	2def      	cmp	r5, #239	; 0xef
 800215c:	eb04 0306 	add.w	r3, r4, r6
 8002160:	dd08      	ble.n	8002174 <ST7789_Test+0x64c>
 8002162:	b29c      	uxth	r4, r3
 8002164:	19a3      	adds	r3, r4, r6
 8002166:	2b86      	cmp	r3, #134	; 0x86
 8002168:	dc15      	bgt.n	8002196 <ST7789_Test+0x66e>
 800216a:	2a20      	cmp	r2, #32
 800216c:	f04f 0000 	mov.w	r0, #0
 8002170:	d00d      	beq.n	800218e <ST7789_Test+0x666>
 8002172:	4645      	mov	r5, r8
 8002174:	f88d 8010 	strb.w	r8, [sp, #16]
 8002178:	f88d 6011 	strb.w	r6, [sp, #17]
 800217c:	e9dd 3104 	ldrd	r3, r1, [sp, #16]
 8002180:	e9cd ab01 	strd	sl, fp, [sp, #4]
 8002184:	9100      	str	r1, [sp, #0]
 8002186:	4621      	mov	r1, r4
 8002188:	f7ff fad8 	bl	800173c <ST7789_WriteChar>
 800218c:	b2a8      	uxth	r0, r5
 800218e:	f819 2b01 	ldrb.w	r2, [r9], #1
 8002192:	2a00      	cmp	r2, #0
 8002194:	d1df      	bne.n	8002156 <ST7789_Test+0x62e>
 8002196:	f000 f9b9 	bl	800250c <HAL_GetTick>
 800219a:	4d1b      	ldr	r5, [pc, #108]	; (8002208 <ST7789_Test+0x6e0>)
 800219c:	f8df 8070 	ldr.w	r8, [pc, #112]	; 8002210 <ST7789_Test+0x6e8>
 80021a0:	4604      	mov	r4, r0
 80021a2:	221e      	movs	r2, #30
 80021a4:	f64f 76ff 	movw	r6, #65535	; 0xffff
 80021a8:	9600      	str	r6, [sp, #0]
 80021aa:	4611      	mov	r1, r2
 80021ac:	602c      	str	r4, [r5, #0]
 80021ae:	4610      	mov	r0, r2
 80021b0:	2346      	movs	r3, #70	; 0x46
 80021b2:	f7fe ff0d 	bl	8000fd0 <ST7789_Fill>
 80021b6:	4d17      	ldr	r5, [pc, #92]	; (8002214 <ST7789_Test+0x6ec>)
 80021b8:	241e      	movs	r4, #30
 80021ba:	f1c4 0364 	rsb	r3, r4, #100	; 0x64
 80021be:	b29b      	uxth	r3, r3
 80021c0:	4619      	mov	r1, r3
 80021c2:	4622      	mov	r2, r4
 80021c4:	4620      	mov	r0, r4
 80021c6:	f8ad 6010 	strh.w	r6, [sp, #16]
 80021ca:	3401      	adds	r4, #1
 80021cc:	f7fe fb8a 	bl	80008e4 <ST7789_SetAddressWindow>
 80021d0:	2304      	movs	r3, #4
 80021d2:	f04f 6280 	mov.w	r2, #67108864	; 0x4000000
 80021d6:	61ab      	str	r3, [r5, #24]
 80021d8:	a904      	add	r1, sp, #16
 80021da:	f04f 33ff 	mov.w	r3, #4294967295
 80021de:	61aa      	str	r2, [r5, #24]
 80021e0:	4640      	mov	r0, r8
 80021e2:	2202      	movs	r2, #2
 80021e4:	b2a4      	uxth	r4, r4
 80021e6:	f001 f861 	bl	80032ac <HAL_SPI_Transmit>
 80021ea:	f44f 6380 	mov.w	r3, #1024	; 0x400
 80021ee:	2c3d      	cmp	r4, #61	; 0x3d
 80021f0:	61ab      	str	r3, [r5, #24]
 80021f2:	d1e2      	bne.n	80021ba <ST7789_Test+0x692>
 80021f4:	241e      	movs	r4, #30
 80021f6:	f8df 801c 	ldr.w	r8, [pc, #28]	; 8002214 <ST7789_Test+0x6ec>
 80021fa:	f8df 9014 	ldr.w	r9, [pc, #20]	; 8002210 <ST7789_Test+0x6e8>
 80021fe:	4626      	mov	r6, r4
 8002200:	250f      	movs	r5, #15
 8002202:	f64f 7aff 	movw	sl, #65535	; 0xffff
 8002206:	e00f      	b.n	8002228 <ST7789_Test+0x700>
 8002208:	20000098 	.word	0x20000098
 800220c:	20000004 	.word	0x20000004
 8002210:	200000a4 	.word	0x200000a4
 8002214:	40020400 	.word	0x40020400
 8002218:	0800f545 	.word	0x0800f545
 800221c:	0800f555 	.word	0x0800f555
 8002220:	0800f55d 	.word	0x0800f55d
 8002224:	0800f569 	.word	0x0800f569
 8002228:	2e86      	cmp	r6, #134	; 0x86
 800222a:	4633      	mov	r3, r6
 800222c:	4622      	mov	r2, r4
 800222e:	4631      	mov	r1, r6
 8002230:	4620      	mov	r0, r4
 8002232:	d815      	bhi.n	8002260 <ST7789_Test+0x738>
 8002234:	f8ad a010 	strh.w	sl, [sp, #16]
 8002238:	f7fe fb54 	bl	80008e4 <ST7789_SetAddressWindow>
 800223c:	2304      	movs	r3, #4
 800223e:	f04f 6280 	mov.w	r2, #67108864	; 0x4000000
 8002242:	f8c8 3018 	str.w	r3, [r8, #24]
 8002246:	a904      	add	r1, sp, #16
 8002248:	f04f 33ff 	mov.w	r3, #4294967295
 800224c:	f8c8 2018 	str.w	r2, [r8, #24]
 8002250:	4648      	mov	r0, r9
 8002252:	2202      	movs	r2, #2
 8002254:	f001 f82a 	bl	80032ac <HAL_SPI_Transmit>
 8002258:	f44f 6380 	mov.w	r3, #1024	; 0x400
 800225c:	f8c8 3018 	str.w	r3, [r8, #24]
 8002260:	b2ab      	uxth	r3, r5
 8002262:	f1a3 050a 	sub.w	r5, r3, #10
 8002266:	b22d      	sxth	r5, r5
 8002268:	3401      	adds	r4, #1
 800226a:	2d00      	cmp	r5, #0
 800226c:	b2a4      	uxth	r4, r4
 800226e:	da04      	bge.n	800227a <ST7789_Test+0x752>
 8002270:	f103 0514 	add.w	r5, r3, #20
 8002274:	3601      	adds	r6, #1
 8002276:	b22d      	sxth	r5, r5
 8002278:	b2b6      	uxth	r6, r6
 800227a:	2c3d      	cmp	r4, #61	; 0x3d
 800227c:	d1d4      	bne.n	8002228 <ST7789_Test+0x700>
 800227e:	f7ff fabb 	bl	80017f8 <printTime>
 8002282:	f44f 707a 	mov.w	r0, #1000	; 0x3e8
 8002286:	f000 f947 	bl	8002518 <HAL_Delay>
 800228a:	f44f 4078 	mov.w	r0, #63488	; 0xf800
 800228e:	f7fe fc67 	bl	8000b60 <ST7789_Fill.constprop.0>
 8002292:	f000 f93b 	bl	800250c <HAL_GetTick>
 8002296:	4a72      	ldr	r2, [pc, #456]	; (8002460 <ST7789_Test+0x938>)
 8002298:	f8df 81d8 	ldr.w	r8, [pc, #472]	; 8002474 <ST7789_Test+0x94c>
 800229c:	7816      	ldrb	r6, [r2, #0]
 800229e:	7855      	ldrb	r5, [r2, #1]
 80022a0:	4603      	mov	r3, r0
 80022a2:	e892 0003 	ldmia.w	r2, {r0, r1}
 80022a6:	4a6f      	ldr	r2, [pc, #444]	; (8002464 <ST7789_Test+0x93c>)
 80022a8:	ac04      	add	r4, sp, #16
 80022aa:	f04f 0b0a 	mov.w	fp, #10
 80022ae:	e884 0003 	stmia.w	r4, {r0, r1}
 80022b2:	6013      	str	r3, [r2, #0]
 80022b4:	4658      	mov	r0, fp
 80022b6:	2246      	movs	r2, #70	; 0x46
 80022b8:	f44f 4a78 	mov.w	sl, #63488	; 0xf800
 80022bc:	f64f 79e0 	movw	r9, #65504	; 0xffe0
 80022c0:	1984      	adds	r4, r0, r6
 80022c2:	2cef      	cmp	r4, #239	; 0xef
 80022c4:	eb0b 0305 	add.w	r3, fp, r5
 80022c8:	dd0a      	ble.n	80022e0 <ST7789_Test+0x7b8>
 80022ca:	fa1f fb83 	uxth.w	fp, r3
 80022ce:	eb0b 0305 	add.w	r3, fp, r5
 80022d2:	2b86      	cmp	r3, #134	; 0x86
 80022d4:	dc15      	bgt.n	8002302 <ST7789_Test+0x7da>
 80022d6:	2a20      	cmp	r2, #32
 80022d8:	f04f 0000 	mov.w	r0, #0
 80022dc:	d00d      	beq.n	80022fa <ST7789_Test+0x7d2>
 80022de:	4634      	mov	r4, r6
 80022e0:	f88d 6010 	strb.w	r6, [sp, #16]
 80022e4:	f88d 5011 	strb.w	r5, [sp, #17]
 80022e8:	e9dd 3104 	ldrd	r3, r1, [sp, #16]
 80022ec:	e9cd 9a01 	strd	r9, sl, [sp, #4]
 80022f0:	9100      	str	r1, [sp, #0]
 80022f2:	4659      	mov	r1, fp
 80022f4:	f7ff fa22 	bl	800173c <ST7789_WriteChar>
 80022f8:	b2a0      	uxth	r0, r4
 80022fa:	f818 2b01 	ldrb.w	r2, [r8], #1
 80022fe:	2a00      	cmp	r2, #0
 8002300:	d1de      	bne.n	80022c0 <ST7789_Test+0x798>
 8002302:	241e      	movs	r4, #30
 8002304:	f64f 76ff 	movw	r6, #65535	; 0xffff
 8002308:	2328      	movs	r3, #40	; 0x28
 800230a:	429c      	cmp	r4, r3
 800230c:	f04f 023c 	mov.w	r2, #60	; 0x3c
 8002310:	f04f 001e 	mov.w	r0, #30
 8002314:	4621      	mov	r1, r4
 8002316:	b2a5      	uxth	r5, r4
 8002318:	9600      	str	r6, [sp, #0]
 800231a:	d03b      	beq.n	8002394 <ST7789_Test+0x86c>
 800231c:	1c6c      	adds	r4, r5, #1
 800231e:	4629      	mov	r1, r5
 8002320:	f7fe fb54 	bl	80009cc <ST7789_DrawLine.part.0>
 8002324:	b2a3      	uxth	r3, r4
 8002326:	2b47      	cmp	r3, #71	; 0x47
 8002328:	b224      	sxth	r4, r4
 800232a:	d1ed      	bne.n	8002308 <ST7789_Test+0x7e0>
 800232c:	f7ff fa64 	bl	80017f8 <printTime>
 8002330:	f44f 707a 	mov.w	r0, #1000	; 0x3e8
 8002334:	f000 f8f0 	bl	8002518 <HAL_Delay>
 8002338:	4e4b      	ldr	r6, [pc, #300]	; (8002468 <ST7789_Test+0x940>)
 800233a:	f64f 70ff 	movw	r0, #65535	; 0xffff
 800233e:	f7fe fc0f 	bl	8000b60 <ST7789_Fill.constprop.0>
 8002342:	f000 f8e3 	bl	800250c <HAL_GetTick>
 8002346:	4b47      	ldr	r3, [pc, #284]	; (8002464 <ST7789_Test+0x93c>)
 8002348:	88b5      	ldrh	r5, [r6, #4]
 800234a:	6018      	str	r0, [r3, #0]
 800234c:	f1c5 03f0 	rsb	r3, r5, #240	; 0xf0
 8002350:	eb03 73d3 	add.w	r3, r3, r3, lsr #31
 8002354:	f3c3 004f 	ubfx	r0, r3, #1, #16
 8002358:	28ef      	cmp	r0, #239	; 0xef
 800235a:	ea4f 0363 	mov.w	r3, r3, asr #1
 800235e:	d810      	bhi.n	8002382 <ST7789_Test+0x85a>
 8002360:	88f4      	ldrh	r4, [r6, #6]
 8002362:	f1c4 0287 	rsb	r2, r4, #135	; 0x87
 8002366:	eb02 72d2 	add.w	r2, r2, r2, lsr #31
 800236a:	f3c2 014f 	ubfx	r1, r2, #1, #16
 800236e:	2986      	cmp	r1, #134	; 0x86
 8002370:	ea4f 0262 	mov.w	r2, r2, asr #1
 8002374:	d805      	bhi.n	8002382 <ST7789_Test+0x85a>
 8002376:	442b      	add	r3, r5
 8002378:	2bf0      	cmp	r3, #240	; 0xf0
 800237a:	dc02      	bgt.n	8002382 <ST7789_Test+0x85a>
 800237c:	4422      	add	r2, r4
 800237e:	2a87      	cmp	r2, #135	; 0x87
 8002380:	dd14      	ble.n	80023ac <ST7789_Test+0x884>
 8002382:	f7ff fa39 	bl	80017f8 <printTime>
 8002386:	f640 30b8 	movw	r0, #3000	; 0xbb8
 800238a:	f000 f8c5 	bl	8002518 <HAL_Delay>
 800238e:	b007      	add	sp, #28
 8002390:	e8bd 8ff0 	ldmia.w	sp!, {r4, r5, r6, r7, r8, r9, sl, fp, pc}
 8002394:	4623      	mov	r3, r4
 8002396:	f7fe fe1b 	bl	8000fd0 <ST7789_Fill>
 800239a:	4623      	mov	r3, r4
 800239c:	9600      	str	r6, [sp, #0]
 800239e:	223c      	movs	r2, #60	; 0x3c
 80023a0:	2129      	movs	r1, #41	; 0x29
 80023a2:	201e      	movs	r0, #30
 80023a4:	f7fe fb12 	bl	80009cc <ST7789_DrawLine.part.0>
 80023a8:	242a      	movs	r4, #42	; 0x2a
 80023aa:	e7ad      	b.n	8002308 <ST7789_Test+0x7e0>
 80023ac:	1e63      	subs	r3, r4, #1
 80023ae:	1e6a      	subs	r2, r5, #1
 80023b0:	440b      	add	r3, r1
 80023b2:	4402      	add	r2, r0
 80023b4:	b29b      	uxth	r3, r3
 80023b6:	b292      	uxth	r2, r2
 80023b8:	f44f 6800 	mov.w	r8, #2048	; 0x800
 80023bc:	6836      	ldr	r6, [r6, #0]
 80023be:	f7fe fa91 	bl	80008e4 <ST7789_SetAddressWindow>
 80023c2:	482a      	ldr	r0, [pc, #168]	; (800246c <ST7789_Test+0x944>)
 80023c4:	f8c7 800c 	str.w	r8, [r7, #12]
 80023c8:	f000 ff10 	bl	80031ec <HAL_SPI_Init>
 80023cc:	6cb8      	ldr	r0, [r7, #72]	; 0x48
 80023ce:	6802      	ldr	r2, [r0, #0]
 80023d0:	6813      	ldr	r3, [r2, #0]
 80023d2:	f023 0301 	bic.w	r3, r3, #1
 80023d6:	6013      	str	r3, [r2, #0]
 80023d8:	f44f 6280 	mov.w	r2, #1024	; 0x400
 80023dc:	f44f 5300 	mov.w	r3, #8192	; 0x2000
 80023e0:	e9c0 2804 	strd	r2, r8, [r0, #16]
 80023e4:	6183      	str	r3, [r0, #24]
 80023e6:	f000 f91d 	bl	8002624 <HAL_DMA_Init>
 80023ea:	4b21      	ldr	r3, [pc, #132]	; (8002470 <ST7789_Test+0x948>)
 80023ec:	f04f 6180 	mov.w	r1, #67108864	; 0x4000000
 80023f0:	2204      	movs	r2, #4
 80023f2:	fb04 f405 	mul.w	r4, r4, r5
 80023f6:	6199      	str	r1, [r3, #24]
 80023f8:	619a      	str	r2, [r3, #24]
 80023fa:	b334      	cbz	r4, 800244a <ST7789_Test+0x922>
 80023fc:	f8df 806c 	ldr.w	r8, [pc, #108]	; 800246c <ST7789_Test+0x944>
 8002400:	f64f 79ff 	movw	r9, #65535	; 0xffff
 8002404:	e008      	b.n	8002418 <ST7789_Test+0x8f0>
 8002406:	f04f 33ff 	mov.w	r3, #4294967295
 800240a:	4631      	mov	r1, r6
 800240c:	4640      	mov	r0, r8
 800240e:	f000 ff4d 	bl	80032ac <HAL_SPI_Transmit>
 8002412:	1b64      	subs	r4, r4, r5
 8002414:	442e      	add	r6, r5
 8002416:	d018      	beq.n	800244a <ST7789_Test+0x922>
 8002418:	454c      	cmp	r4, r9
 800241a:	4625      	mov	r5, r4
 800241c:	bf28      	it	cs
 800241e:	464d      	movcs	r5, r9
 8002420:	2c0f      	cmp	r4, #15
 8002422:	b2aa      	uxth	r2, r5
 8002424:	d9ef      	bls.n	8002406 <ST7789_Test+0x8de>
 8002426:	4631      	mov	r1, r6
 8002428:	4640      	mov	r0, r8
 800242a:	f001 f863 	bl	80034f4 <HAL_SPI_Transmit_DMA>
 800242e:	6cbb      	ldr	r3, [r7, #72]	; 0x48
 8002430:	f893 3035 	ldrb.w	r3, [r3, #53]	; 0x35
 8002434:	2b01      	cmp	r3, #1
 8002436:	d0ec      	beq.n	8002412 <ST7789_Test+0x8ea>
 8002438:	bf00      	nop
 800243a:	6cbb      	ldr	r3, [r7, #72]	; 0x48
 800243c:	f893 3035 	ldrb.w	r3, [r3, #53]	; 0x35
 8002440:	2b01      	cmp	r3, #1
 8002442:	d1f9      	bne.n	8002438 <ST7789_Test+0x910>
 8002444:	1b64      	subs	r4, r4, r5
 8002446:	442e      	add	r6, r5
 8002448:	d1e6      	bne.n	8002418 <ST7789_Test+0x8f0>
 800244a:	4b09      	ldr	r3, [pc, #36]	; (8002470 <ST7789_Test+0x948>)
 800244c:	4807      	ldr	r0, [pc, #28]	; (800246c <ST7789_Test+0x944>)
 800244e:	f44f 6280 	mov.w	r2, #1024	; 0x400
 8002452:	619a      	str	r2, [r3, #24]
 8002454:	2300      	movs	r3, #0
 8002456:	60fb      	str	r3, [r7, #12]
 8002458:	f000 fec8 	bl	80031ec <HAL_SPI_Init>
 800245c:	e791      	b.n	8002382 <ST7789_Test+0x85a>
 800245e:	bf00      	nop
 8002460:	20000004 	.word	0x20000004
 8002464:	20000098 	.word	0x20000098
 8002468:	08004e34 	.word	0x08004e34
 800246c:	200000a4 	.word	0x200000a4
 8002470:	40020400 	.word	0x40020400
 8002474:	0800f575 	.word	0x0800f575

08002478 <HAL_InitTick>:
 8002478:	b538      	push	{r3, r4, r5, lr}
 800247a:	4a0e      	ldr	r2, [pc, #56]	; (80024b4 <HAL_InitTick+0x3c>)
 800247c:	4b0e      	ldr	r3, [pc, #56]	; (80024b8 <HAL_InitTick+0x40>)
 800247e:	7812      	ldrb	r2, [r2, #0]
 8002480:	681b      	ldr	r3, [r3, #0]
 8002482:	4605      	mov	r5, r0
 8002484:	f44f 707a 	mov.w	r0, #1000	; 0x3e8
 8002488:	fbb0 f0f2 	udiv	r0, r0, r2
 800248c:	fbb3 f0f0 	udiv	r0, r3, r0
 8002490:	f000 f8ae 	bl	80025f0 <HAL_SYSTICK_Config>
 8002494:	b908      	cbnz	r0, 800249a <HAL_InitTick+0x22>
 8002496:	2d0f      	cmp	r5, #15
 8002498:	d901      	bls.n	800249e <HAL_InitTick+0x26>
 800249a:	2001      	movs	r0, #1
 800249c:	bd38      	pop	{r3, r4, r5, pc}
 800249e:	4604      	mov	r4, r0
 80024a0:	4602      	mov	r2, r0
 80024a2:	4629      	mov	r1, r5
 80024a4:	f04f 30ff 	mov.w	r0, #4294967295
 80024a8:	f000 f85c 	bl	8002564 <HAL_NVIC_SetPriority>
 80024ac:	4b03      	ldr	r3, [pc, #12]	; (80024bc <HAL_InitTick+0x44>)
 80024ae:	4620      	mov	r0, r4
 80024b0:	601d      	str	r5, [r3, #0]
 80024b2:	bd38      	pop	{r3, r4, r5, pc}
 80024b4:	2000000c 	.word	0x2000000c
 80024b8:	20000000 	.word	0x20000000
 80024bc:	20000010 	.word	0x20000010

080024c0 <HAL_Init>:
 80024c0:	b508      	push	{r3, lr}
 80024c2:	4b0b      	ldr	r3, [pc, #44]	; (80024f0 <HAL_Init+0x30>)
 80024c4:	681a      	ldr	r2, [r3, #0]
 80024c6:	f442 7200 	orr.w	r2, r2, #512	; 0x200
 80024ca:	601a      	str	r2, [r3, #0]
 80024cc:	681a      	ldr	r2, [r3, #0]
 80024ce:	f442 6280 	orr.w	r2, r2, #1024	; 0x400
 80024d2:	601a      	str	r2, [r3, #0]
 80024d4:	681a      	ldr	r2, [r3, #0]
 80024d6:	f442 7280 	orr.w	r2, r2, #256	; 0x100
 80024da:	601a      	str	r2, [r3, #0]
 80024dc:	2003      	movs	r0, #3
 80024de:	f000 f82d 	bl	800253c <HAL_NVIC_SetPriorityGrouping>
 80024e2:	2000      	movs	r0, #0
 80024e4:	f7ff ffc8 	bl	8002478 <HAL_InitTick>
 80024e8:	f7fe f90a 	bl	8000700 <HAL_MspInit>
 80024ec:	2000      	movs	r0, #0
 80024ee:	bd08      	pop	{r3, pc}
 80024f0:	40023c00 	.word	0x40023c00

080024f4 <HAL_IncTick>:
 80024f4:	4a03      	ldr	r2, [pc, #12]	; (8002504 <HAL_IncTick+0x10>)
 80024f6:	4b04      	ldr	r3, [pc, #16]	; (8002508 <HAL_IncTick+0x14>)
 80024f8:	6811      	ldr	r1, [r2, #0]
 80024fa:	781b      	ldrb	r3, [r3, #0]
 80024fc:	440b      	add	r3, r1
 80024fe:	6013      	str	r3, [r2, #0]
 8002500:	4770      	bx	lr
 8002502:	bf00      	nop
 8002504:	2000015c 	.word	0x2000015c
 8002508:	2000000c 	.word	0x2000000c

0800250c <HAL_GetTick>:
 800250c:	4b01      	ldr	r3, [pc, #4]	; (8002514 <HAL_GetTick+0x8>)
 800250e:	6818      	ldr	r0, [r3, #0]
 8002510:	4770      	bx	lr
 8002512:	bf00      	nop
 8002514:	2000015c 	.word	0x2000015c

08002518 <HAL_Delay>:
 8002518:	b538      	push	{r3, r4, r5, lr}
 800251a:	4604      	mov	r4, r0
 800251c:	f7ff fff6 	bl	800250c <HAL_GetTick>
 8002520:	1c63      	adds	r3, r4, #1
 8002522:	4605      	mov	r5, r0
 8002524:	d002      	beq.n	800252c <HAL_Delay+0x14>
 8002526:	4b04      	ldr	r3, [pc, #16]	; (8002538 <HAL_Delay+0x20>)
 8002528:	781b      	ldrb	r3, [r3, #0]
 800252a:	441c      	add	r4, r3
 800252c:	f7ff ffee 	bl	800250c <HAL_GetTick>
 8002530:	1b43      	subs	r3, r0, r5
 8002532:	42a3      	cmp	r3, r4
 8002534:	d3fa      	bcc.n	800252c <HAL_Delay+0x14>
 8002536:	bd38      	pop	{r3, r4, r5, pc}
 8002538:	2000000c 	.word	0x2000000c

0800253c <HAL_NVIC_SetPriorityGrouping>:
 800253c:	4908      	ldr	r1, [pc, #32]	; (8002560 <HAL_NVIC_SetPriorityGrouping+0x24>)
 800253e:	68ca      	ldr	r2, [r1, #12]
 8002540:	b410      	push	{r4}
 8002542:	0200      	lsls	r0, r0, #8
 8002544:	f64f 04ff 	movw	r4, #63743	; 0xf8ff
 8002548:	4022      	ands	r2, r4
 800254a:	f400 63e0 	and.w	r3, r0, #1792	; 0x700
 800254e:	4313      	orrs	r3, r2
 8002550:	f043 63bf 	orr.w	r3, r3, #100139008	; 0x5f80000
 8002554:	f443 3300 	orr.w	r3, r3, #131072	; 0x20000
 8002558:	f85d 4b04 	ldr.w	r4, [sp], #4
 800255c:	60cb      	str	r3, [r1, #12]
 800255e:	4770      	bx	lr
 8002560:	e000ed00 	.word	0xe000ed00

08002564 <HAL_NVIC_SetPriority>:
 8002564:	4b19      	ldr	r3, [pc, #100]	; (80025cc <HAL_NVIC_SetPriority+0x68>)
 8002566:	68db      	ldr	r3, [r3, #12]
 8002568:	f3c3 2302 	ubfx	r3, r3, #8, #3
 800256c:	b430      	push	{r4, r5}
 800256e:	f1c3 0507 	rsb	r5, r3, #7
 8002572:	2d04      	cmp	r5, #4
 8002574:	f103 0404 	add.w	r4, r3, #4
 8002578:	bf28      	it	cs
 800257a:	2504      	movcs	r5, #4
 800257c:	2c06      	cmp	r4, #6
 800257e:	d919      	bls.n	80025b4 <HAL_NVIC_SetPriority+0x50>
 8002580:	3b03      	subs	r3, #3
 8002582:	f04f 34ff 	mov.w	r4, #4294967295
 8002586:	409c      	lsls	r4, r3
 8002588:	ea22 0204 	bic.w	r2, r2, r4
 800258c:	f04f 34ff 	mov.w	r4, #4294967295
 8002590:	40ac      	lsls	r4, r5
 8002592:	ea21 0104 	bic.w	r1, r1, r4
 8002596:	4099      	lsls	r1, r3
 8002598:	2800      	cmp	r0, #0
 800259a:	ea41 0102 	orr.w	r1, r1, r2
 800259e:	db0c      	blt.n	80025ba <HAL_NVIC_SetPriority+0x56>
 80025a0:	f100 4060 	add.w	r0, r0, #3758096384	; 0xe0000000
 80025a4:	f500 4061 	add.w	r0, r0, #57600	; 0xe100
 80025a8:	0109      	lsls	r1, r1, #4
 80025aa:	b2c9      	uxtb	r1, r1
 80025ac:	f880 1300 	strb.w	r1, [r0, #768]	; 0x300
 80025b0:	bc30      	pop	{r4, r5}
 80025b2:	4770      	bx	lr
 80025b4:	2200      	movs	r2, #0
 80025b6:	4613      	mov	r3, r2
 80025b8:	e7e8      	b.n	800258c <HAL_NVIC_SetPriority+0x28>
 80025ba:	4b05      	ldr	r3, [pc, #20]	; (80025d0 <HAL_NVIC_SetPriority+0x6c>)
 80025bc:	f000 000f 	and.w	r0, r0, #15
 80025c0:	0109      	lsls	r1, r1, #4
 80025c2:	4403      	add	r3, r0
 80025c4:	b2c9      	uxtb	r1, r1
 80025c6:	7619      	strb	r1, [r3, #24]
 80025c8:	bc30      	pop	{r4, r5}
 80025ca:	4770      	bx	lr
 80025cc:	e000ed00 	.word	0xe000ed00
 80025d0:	e000ecfc 	.word	0xe000ecfc

080025d4 <HAL_NVIC_EnableIRQ>:
 80025d4:	2800      	cmp	r0, #0
 80025d6:	db07      	blt.n	80025e8 <HAL_NVIC_EnableIRQ+0x14>
 80025d8:	f000 011f 	and.w	r1, r0, #31
 80025dc:	4a03      	ldr	r2, [pc, #12]	; (80025ec <HAL_NVIC_EnableIRQ+0x18>)
 80025de:	0940      	lsrs	r0, r0, #5
 80025e0:	2301      	movs	r3, #1
 80025e2:	408b      	lsls	r3, r1
 80025e4:	f842 3020 	str.w	r3, [r2, r0, lsl #2]
 80025e8:	4770      	bx	lr
 80025ea:	bf00      	nop
 80025ec:	e000e100 	.word	0xe000e100

080025f0 <HAL_SYSTICK_Config>:
 80025f0:	3801      	subs	r0, #1
 80025f2:	f1b0 7f80 	cmp.w	r0, #16777216	; 0x1000000
 80025f6:	d20e      	bcs.n	8002616 <HAL_SYSTICK_Config+0x26>
 80025f8:	4b08      	ldr	r3, [pc, #32]	; (800261c <HAL_SYSTICK_Config+0x2c>)
 80025fa:	b410      	push	{r4}
 80025fc:	4c08      	ldr	r4, [pc, #32]	; (8002620 <HAL_SYSTICK_Config+0x30>)
 80025fe:	6058      	str	r0, [r3, #4]
 8002600:	20f0      	movs	r0, #240	; 0xf0
 8002602:	f884 0023 	strb.w	r0, [r4, #35]	; 0x23
 8002606:	2200      	movs	r2, #0
 8002608:	2107      	movs	r1, #7
 800260a:	4610      	mov	r0, r2
 800260c:	609a      	str	r2, [r3, #8]
 800260e:	f85d 4b04 	ldr.w	r4, [sp], #4
 8002612:	6019      	str	r1, [r3, #0]
 8002614:	4770      	bx	lr
 8002616:	2001      	movs	r0, #1
 8002618:	4770      	bx	lr
 800261a:	bf00      	nop
 800261c:	e000e010 	.word	0xe000e010
 8002620:	e000ed00 	.word	0xe000ed00

08002624 <HAL_DMA_Init>:
 8002624:	b5f8      	push	{r3, r4, r5, r6, r7, lr}
 8002626:	4604      	mov	r4, r0
 8002628:	f7ff ff70 	bl	800250c <HAL_GetTick>
 800262c:	2c00      	cmp	r4, #0
 800262e:	d054      	beq.n	80026da <HAL_DMA_Init+0xb6>
 8002630:	6823      	ldr	r3, [r4, #0]
 8002632:	2200      	movs	r2, #0
 8002634:	2102      	movs	r1, #2
 8002636:	f884 1035 	strb.w	r1, [r4, #53]	; 0x35
 800263a:	f884 2034 	strb.w	r2, [r4, #52]	; 0x34
 800263e:	681a      	ldr	r2, [r3, #0]
 8002640:	f022 0201 	bic.w	r2, r2, #1
 8002644:	4605      	mov	r5, r0
 8002646:	601a      	str	r2, [r3, #0]
 8002648:	e005      	b.n	8002656 <HAL_DMA_Init+0x32>
 800264a:	f7ff ff5f 	bl	800250c <HAL_GetTick>
 800264e:	1b43      	subs	r3, r0, r5
 8002650:	2b05      	cmp	r3, #5
 8002652:	d83b      	bhi.n	80026cc <HAL_DMA_Init+0xa8>
 8002654:	6823      	ldr	r3, [r4, #0]
 8002656:	681a      	ldr	r2, [r3, #0]
 8002658:	07d1      	lsls	r1, r2, #31
 800265a:	d4f6      	bmi.n	800264a <HAL_DMA_Init+0x26>
 800265c:	e9d4 2601 	ldrd	r2, r6, [r4, #4]
 8002660:	e9d4 5003 	ldrd	r5, r0, [r4, #12]
 8002664:	4332      	orrs	r2, r6
 8002666:	6961      	ldr	r1, [r4, #20]
 8002668:	681f      	ldr	r7, [r3, #0]
 800266a:	432a      	orrs	r2, r5
 800266c:	e9d4 6506 	ldrd	r6, r5, [r4, #24]
 8002670:	4302      	orrs	r2, r0
 8002672:	430a      	orrs	r2, r1
 8002674:	6a20      	ldr	r0, [r4, #32]
 8002676:	4935      	ldr	r1, [pc, #212]	; (800274c <HAL_DMA_Init+0x128>)
 8002678:	4332      	orrs	r2, r6
 800267a:	432a      	orrs	r2, r5
 800267c:	4302      	orrs	r2, r0
 800267e:	6a60      	ldr	r0, [r4, #36]	; 0x24
 8002680:	4039      	ands	r1, r7
 8002682:	2804      	cmp	r0, #4
 8002684:	ea41 0102 	orr.w	r1, r1, r2
 8002688:	d029      	beq.n	80026de <HAL_DMA_Init+0xba>
 800268a:	6019      	str	r1, [r3, #0]
 800268c:	695a      	ldr	r2, [r3, #20]
 800268e:	f022 0207 	bic.w	r2, r2, #7
 8002692:	4310      	orrs	r0, r2
 8002694:	b2da      	uxtb	r2, r3
 8002696:	492e      	ldr	r1, [pc, #184]	; (8002750 <HAL_DMA_Init+0x12c>)
 8002698:	6158      	str	r0, [r3, #20]
 800269a:	3a10      	subs	r2, #16
 800269c:	fba1 0102 	umull	r0, r1, r1, r2
 80026a0:	0909      	lsrs	r1, r1, #4
 80026a2:	482c      	ldr	r0, [pc, #176]	; (8002754 <HAL_DMA_Init+0x130>)
 80026a4:	f423 737f 	bic.w	r3, r3, #1020	; 0x3fc
 80026a8:	5c41      	ldrb	r1, [r0, r1]
 80026aa:	65e1      	str	r1, [r4, #92]	; 0x5c
 80026ac:	f023 0303 	bic.w	r3, r3, #3
 80026b0:	2a5f      	cmp	r2, #95	; 0x5f
 80026b2:	bf88      	it	hi
 80026b4:	3304      	addhi	r3, #4
 80026b6:	223f      	movs	r2, #63	; 0x3f
 80026b8:	408a      	lsls	r2, r1
 80026ba:	2501      	movs	r5, #1
 80026bc:	2100      	movs	r1, #0
 80026be:	65a3      	str	r3, [r4, #88]	; 0x58
 80026c0:	609a      	str	r2, [r3, #8]
 80026c2:	6561      	str	r1, [r4, #84]	; 0x54
 80026c4:	f884 5035 	strb.w	r5, [r4, #53]	; 0x35
 80026c8:	4608      	mov	r0, r1
 80026ca:	bdf8      	pop	{r3, r4, r5, r6, r7, pc}
 80026cc:	2303      	movs	r3, #3
 80026ce:	2220      	movs	r2, #32
 80026d0:	6562      	str	r2, [r4, #84]	; 0x54
 80026d2:	f884 3035 	strb.w	r3, [r4, #53]	; 0x35
 80026d6:	4618      	mov	r0, r3
 80026d8:	bdf8      	pop	{r3, r4, r5, r6, r7, pc}
 80026da:	2001      	movs	r0, #1
 80026dc:	bdf8      	pop	{r3, r4, r5, r6, r7, pc}
 80026de:	e9d4 500b 	ldrd	r5, r0, [r4, #44]	; 0x2c
 80026e2:	4328      	orrs	r0, r5
 80026e4:	4301      	orrs	r1, r0
 80026e6:	6aa2      	ldr	r2, [r4, #40]	; 0x28
 80026e8:	6019      	str	r1, [r3, #0]
 80026ea:	6958      	ldr	r0, [r3, #20]
 80026ec:	f020 0007 	bic.w	r0, r0, #7
 80026f0:	4310      	orrs	r0, r2
 80026f2:	f040 0004 	orr.w	r0, r0, #4
 80026f6:	2d00      	cmp	r5, #0
 80026f8:	d0cc      	beq.n	8002694 <HAL_DMA_Init+0x70>
 80026fa:	b17e      	cbz	r6, 800271c <HAL_DMA_Init+0xf8>
 80026fc:	f5b6 5f00 	cmp.w	r6, #8192	; 0x2000
 8002700:	d012      	beq.n	8002728 <HAL_DMA_Init+0x104>
 8002702:	2a02      	cmp	r2, #2
 8002704:	d903      	bls.n	800270e <HAL_DMA_Init+0xea>
 8002706:	2a03      	cmp	r2, #3
 8002708:	d1c4      	bne.n	8002694 <HAL_DMA_Init+0x70>
 800270a:	01ea      	lsls	r2, r5, #7
 800270c:	d5c2      	bpl.n	8002694 <HAL_DMA_Init+0x70>
 800270e:	2301      	movs	r3, #1
 8002710:	2240      	movs	r2, #64	; 0x40
 8002712:	6562      	str	r2, [r4, #84]	; 0x54
 8002714:	f884 3035 	strb.w	r3, [r4, #53]	; 0x35
 8002718:	4618      	mov	r0, r3
 800271a:	bdf8      	pop	{r3, r4, r5, r6, r7, pc}
 800271c:	2a01      	cmp	r2, #1
 800271e:	d011      	beq.n	8002744 <HAL_DMA_Init+0x120>
 8002720:	f032 0202 	bics.w	r2, r2, #2
 8002724:	d1b6      	bne.n	8002694 <HAL_DMA_Init+0x70>
 8002726:	e7f0      	b.n	800270a <HAL_DMA_Init+0xe6>
 8002728:	2a03      	cmp	r2, #3
 800272a:	d8b3      	bhi.n	8002694 <HAL_DMA_Init+0x70>
 800272c:	a101      	add	r1, pc, #4	; (adr r1, 8002734 <HAL_DMA_Init+0x110>)
 800272e:	f851 f022 	ldr.w	pc, [r1, r2, lsl #2]
 8002732:	bf00      	nop
 8002734:	0800270f 	.word	0x0800270f
 8002738:	0800270b 	.word	0x0800270b
 800273c:	0800270f 	.word	0x0800270f
 8002740:	08002745 	.word	0x08002745
 8002744:	f1b5 7fc0 	cmp.w	r5, #25165824	; 0x1800000
 8002748:	d1a4      	bne.n	8002694 <HAL_DMA_Init+0x70>
 800274a:	e7e0      	b.n	800270e <HAL_DMA_Init+0xea>
 800274c:	f010803f 	.word	0xf010803f
 8002750:	aaaaaaab 	.word	0xaaaaaaab
 8002754:	0800f580 	.word	0x0800f580

08002758 <HAL_DMA_Start_IT>:
 8002758:	b4f0      	push	{r4, r5, r6, r7}
 800275a:	f890 4034 	ldrb.w	r4, [r0, #52]	; 0x34
 800275e:	6d86      	ldr	r6, [r0, #88]	; 0x58
 8002760:	2c01      	cmp	r4, #1
 8002762:	d034      	beq.n	80027ce <HAL_DMA_Start_IT+0x76>
 8002764:	f890 4035 	ldrb.w	r4, [r0, #53]	; 0x35
 8002768:	2501      	movs	r5, #1
 800276a:	42ac      	cmp	r4, r5
 800276c:	f880 5034 	strb.w	r5, [r0, #52]	; 0x34
 8002770:	d005      	beq.n	800277e <HAL_DMA_Start_IT+0x26>
 8002772:	2300      	movs	r3, #0
 8002774:	f880 3034 	strb.w	r3, [r0, #52]	; 0x34
 8002778:	bcf0      	pop	{r4, r5, r6, r7}
 800277a:	2002      	movs	r0, #2
 800277c:	4770      	bx	lr
 800277e:	6804      	ldr	r4, [r0, #0]
 8002780:	2702      	movs	r7, #2
 8002782:	2500      	movs	r5, #0
 8002784:	f880 7035 	strb.w	r7, [r0, #53]	; 0x35
 8002788:	6545      	str	r5, [r0, #84]	; 0x54
 800278a:	6825      	ldr	r5, [r4, #0]
 800278c:	6887      	ldr	r7, [r0, #8]
 800278e:	f425 2580 	bic.w	r5, r5, #262144	; 0x40000
 8002792:	2f40      	cmp	r7, #64	; 0x40
 8002794:	6025      	str	r5, [r4, #0]
 8002796:	6063      	str	r3, [r4, #4]
 8002798:	bf0a      	itet	eq
 800279a:	60a2      	streq	r2, [r4, #8]
 800279c:	60a1      	strne	r1, [r4, #8]
 800279e:	60e1      	streq	r1, [r4, #12]
 80027a0:	6dc1      	ldr	r1, [r0, #92]	; 0x5c
 80027a2:	bf18      	it	ne
 80027a4:	60e2      	strne	r2, [r4, #12]
 80027a6:	233f      	movs	r3, #63	; 0x3f
 80027a8:	408b      	lsls	r3, r1
 80027aa:	6c02      	ldr	r2, [r0, #64]	; 0x40
 80027ac:	60b3      	str	r3, [r6, #8]
 80027ae:	6823      	ldr	r3, [r4, #0]
 80027b0:	f043 0316 	orr.w	r3, r3, #22
 80027b4:	6023      	str	r3, [r4, #0]
 80027b6:	b11a      	cbz	r2, 80027c0 <HAL_DMA_Start_IT+0x68>
 80027b8:	6823      	ldr	r3, [r4, #0]
 80027ba:	f043 0308 	orr.w	r3, r3, #8
 80027be:	6023      	str	r3, [r4, #0]
 80027c0:	6823      	ldr	r3, [r4, #0]
 80027c2:	f043 0301 	orr.w	r3, r3, #1
 80027c6:	6023      	str	r3, [r4, #0]
 80027c8:	2000      	movs	r0, #0
 80027ca:	bcf0      	pop	{r4, r5, r6, r7}
 80027cc:	4770      	bx	lr
 80027ce:	2002      	movs	r0, #2
 80027d0:	bcf0      	pop	{r4, r5, r6, r7}
 80027d2:	4770      	bx	lr

080027d4 <HAL_DMA_Abort_IT>:
 80027d4:	f890 3035 	ldrb.w	r3, [r0, #53]	; 0x35
 80027d8:	2b02      	cmp	r3, #2
 80027da:	d003      	beq.n	80027e4 <HAL_DMA_Abort_IT+0x10>
 80027dc:	2380      	movs	r3, #128	; 0x80
 80027de:	6543      	str	r3, [r0, #84]	; 0x54
 80027e0:	2001      	movs	r0, #1
 80027e2:	4770      	bx	lr
 80027e4:	6802      	ldr	r2, [r0, #0]
 80027e6:	2305      	movs	r3, #5
 80027e8:	f880 3035 	strb.w	r3, [r0, #53]	; 0x35
 80027ec:	6813      	ldr	r3, [r2, #0]
 80027ee:	f023 0301 	bic.w	r3, r3, #1
 80027f2:	6013      	str	r3, [r2, #0]
 80027f4:	2000      	movs	r0, #0
 80027f6:	4770      	bx	lr

080027f8 <HAL_DMA_IRQHandler>:
 80027f8:	e92d 41f0 	stmdb	sp!, {r4, r5, r6, r7, r8, lr}
 80027fc:	b082      	sub	sp, #8
 80027fe:	2300      	movs	r3, #0
 8002800:	6d86      	ldr	r6, [r0, #88]	; 0x58
 8002802:	9301      	str	r3, [sp, #4]
 8002804:	6dc3      	ldr	r3, [r0, #92]	; 0x5c
 8002806:	6834      	ldr	r4, [r6, #0]
 8002808:	4971      	ldr	r1, [pc, #452]	; (80029d0 <HAL_DMA_IRQHandler+0x1d8>)
 800280a:	2208      	movs	r2, #8
 800280c:	409a      	lsls	r2, r3
 800280e:	4222      	tst	r2, r4
 8002810:	680d      	ldr	r5, [r1, #0]
 8002812:	4680      	mov	r8, r0
 8002814:	d004      	beq.n	8002820 <HAL_DMA_IRQHandler+0x28>
 8002816:	6801      	ldr	r1, [r0, #0]
 8002818:	680f      	ldr	r7, [r1, #0]
 800281a:	0778      	lsls	r0, r7, #29
 800281c:	f100 808a 	bmi.w	8002934 <HAL_DMA_IRQHandler+0x13c>
 8002820:	2201      	movs	r2, #1
 8002822:	409a      	lsls	r2, r3
 8002824:	4222      	tst	r2, r4
 8002826:	d004      	beq.n	8002832 <HAL_DMA_IRQHandler+0x3a>
 8002828:	f8d8 1000 	ldr.w	r1, [r8]
 800282c:	6949      	ldr	r1, [r1, #20]
 800282e:	0609      	lsls	r1, r1, #24
 8002830:	d478      	bmi.n	8002924 <HAL_DMA_IRQHandler+0x12c>
 8002832:	2204      	movs	r2, #4
 8002834:	409a      	lsls	r2, r3
 8002836:	4222      	tst	r2, r4
 8002838:	d004      	beq.n	8002844 <HAL_DMA_IRQHandler+0x4c>
 800283a:	f8d8 1000 	ldr.w	r1, [r8]
 800283e:	6809      	ldr	r1, [r1, #0]
 8002840:	078f      	lsls	r7, r1, #30
 8002842:	d467      	bmi.n	8002914 <HAL_DMA_IRQHandler+0x11c>
 8002844:	2210      	movs	r2, #16
 8002846:	409a      	lsls	r2, r3
 8002848:	4222      	tst	r2, r4
 800284a:	d004      	beq.n	8002856 <HAL_DMA_IRQHandler+0x5e>
 800284c:	f8d8 1000 	ldr.w	r1, [r8]
 8002850:	680f      	ldr	r7, [r1, #0]
 8002852:	0738      	lsls	r0, r7, #28
 8002854:	d449      	bmi.n	80028ea <HAL_DMA_IRQHandler+0xf2>
 8002856:	2220      	movs	r2, #32
 8002858:	409a      	lsls	r2, r3
 800285a:	4222      	tst	r2, r4
 800285c:	d017      	beq.n	800288e <HAL_DMA_IRQHandler+0x96>
 800285e:	f8d8 1000 	ldr.w	r1, [r8]
 8002862:	680c      	ldr	r4, [r1, #0]
 8002864:	06e0      	lsls	r0, r4, #27
 8002866:	d512      	bpl.n	800288e <HAL_DMA_IRQHandler+0x96>
 8002868:	60b2      	str	r2, [r6, #8]
 800286a:	f898 2035 	ldrb.w	r2, [r8, #53]	; 0x35
 800286e:	2a05      	cmp	r2, #5
 8002870:	d073      	beq.n	800295a <HAL_DMA_IRQHandler+0x162>
 8002872:	680b      	ldr	r3, [r1, #0]
 8002874:	f413 2f80 	tst.w	r3, #262144	; 0x40000
 8002878:	680b      	ldr	r3, [r1, #0]
 800287a:	f000 8090 	beq.w	800299e <HAL_DMA_IRQHandler+0x1a6>
 800287e:	0319      	lsls	r1, r3, #12
 8002880:	f140 809b 	bpl.w	80029ba <HAL_DMA_IRQHandler+0x1c2>
 8002884:	f8d8 303c 	ldr.w	r3, [r8, #60]	; 0x3c
 8002888:	b10b      	cbz	r3, 800288e <HAL_DMA_IRQHandler+0x96>
 800288a:	4640      	mov	r0, r8
 800288c:	4798      	blx	r3
 800288e:	f8d8 3054 	ldr.w	r3, [r8, #84]	; 0x54
 8002892:	b33b      	cbz	r3, 80028e4 <HAL_DMA_IRQHandler+0xec>
 8002894:	f8d8 3054 	ldr.w	r3, [r8, #84]	; 0x54
 8002898:	07da      	lsls	r2, r3, #31
 800289a:	d51b      	bpl.n	80028d4 <HAL_DMA_IRQHandler+0xdc>
 800289c:	f8d8 2000 	ldr.w	r2, [r8]
 80028a0:	494c      	ldr	r1, [pc, #304]	; (80029d4 <HAL_DMA_IRQHandler+0x1dc>)
 80028a2:	2305      	movs	r3, #5
 80028a4:	f888 3035 	strb.w	r3, [r8, #53]	; 0x35
 80028a8:	6813      	ldr	r3, [r2, #0]
 80028aa:	fba1 1505 	umull	r1, r5, r1, r5
 80028ae:	f023 0301 	bic.w	r3, r3, #1
 80028b2:	6013      	str	r3, [r2, #0]
 80028b4:	0aad      	lsrs	r5, r5, #10
 80028b6:	e002      	b.n	80028be <HAL_DMA_IRQHandler+0xc6>
 80028b8:	6813      	ldr	r3, [r2, #0]
 80028ba:	07db      	lsls	r3, r3, #31
 80028bc:	d504      	bpl.n	80028c8 <HAL_DMA_IRQHandler+0xd0>
 80028be:	9b01      	ldr	r3, [sp, #4]
 80028c0:	3301      	adds	r3, #1
 80028c2:	42ab      	cmp	r3, r5
 80028c4:	9301      	str	r3, [sp, #4]
 80028c6:	d9f7      	bls.n	80028b8 <HAL_DMA_IRQHandler+0xc0>
 80028c8:	2201      	movs	r2, #1
 80028ca:	2300      	movs	r3, #0
 80028cc:	f888 2035 	strb.w	r2, [r8, #53]	; 0x35
 80028d0:	f888 3034 	strb.w	r3, [r8, #52]	; 0x34
 80028d4:	f8d8 304c 	ldr.w	r3, [r8, #76]	; 0x4c
 80028d8:	b123      	cbz	r3, 80028e4 <HAL_DMA_IRQHandler+0xec>
 80028da:	4640      	mov	r0, r8
 80028dc:	b002      	add	sp, #8
 80028de:	e8bd 41f0 	ldmia.w	sp!, {r4, r5, r6, r7, r8, lr}
 80028e2:	4718      	bx	r3
 80028e4:	b002      	add	sp, #8
 80028e6:	e8bd 81f0 	ldmia.w	sp!, {r4, r5, r6, r7, r8, pc}
 80028ea:	60b2      	str	r2, [r6, #8]
 80028ec:	680a      	ldr	r2, [r1, #0]
 80028ee:	f412 2f80 	tst.w	r2, #262144	; 0x40000
 80028f2:	680a      	ldr	r2, [r1, #0]
 80028f4:	d12a      	bne.n	800294c <HAL_DMA_IRQHandler+0x154>
 80028f6:	05d7      	lsls	r7, r2, #23
 80028f8:	d403      	bmi.n	8002902 <HAL_DMA_IRQHandler+0x10a>
 80028fa:	680a      	ldr	r2, [r1, #0]
 80028fc:	f022 0208 	bic.w	r2, r2, #8
 8002900:	600a      	str	r2, [r1, #0]
 8002902:	f8d8 2040 	ldr.w	r2, [r8, #64]	; 0x40
 8002906:	2a00      	cmp	r2, #0
 8002908:	d0a5      	beq.n	8002856 <HAL_DMA_IRQHandler+0x5e>
 800290a:	4640      	mov	r0, r8
 800290c:	4790      	blx	r2
 800290e:	f8d8 305c 	ldr.w	r3, [r8, #92]	; 0x5c
 8002912:	e7a0      	b.n	8002856 <HAL_DMA_IRQHandler+0x5e>
 8002914:	60b2      	str	r2, [r6, #8]
 8002916:	f8d8 2054 	ldr.w	r2, [r8, #84]	; 0x54
 800291a:	f042 0204 	orr.w	r2, r2, #4
 800291e:	f8c8 2054 	str.w	r2, [r8, #84]	; 0x54
 8002922:	e78f      	b.n	8002844 <HAL_DMA_IRQHandler+0x4c>
 8002924:	60b2      	str	r2, [r6, #8]
 8002926:	f8d8 2054 	ldr.w	r2, [r8, #84]	; 0x54
 800292a:	f042 0202 	orr.w	r2, r2, #2
 800292e:	f8c8 2054 	str.w	r2, [r8, #84]	; 0x54
 8002932:	e77e      	b.n	8002832 <HAL_DMA_IRQHandler+0x3a>
 8002934:	680f      	ldr	r7, [r1, #0]
 8002936:	f027 0704 	bic.w	r7, r7, #4
 800293a:	600f      	str	r7, [r1, #0]
 800293c:	60b2      	str	r2, [r6, #8]
 800293e:	f8d8 2054 	ldr.w	r2, [r8, #84]	; 0x54
 8002942:	f042 0201 	orr.w	r2, r2, #1
 8002946:	f8c8 2054 	str.w	r2, [r8, #84]	; 0x54
 800294a:	e769      	b.n	8002820 <HAL_DMA_IRQHandler+0x28>
 800294c:	0312      	lsls	r2, r2, #12
 800294e:	d5d8      	bpl.n	8002902 <HAL_DMA_IRQHandler+0x10a>
 8002950:	f8d8 2048 	ldr.w	r2, [r8, #72]	; 0x48
 8002954:	2a00      	cmp	r2, #0
 8002956:	d1d8      	bne.n	800290a <HAL_DMA_IRQHandler+0x112>
 8002958:	e77d      	b.n	8002856 <HAL_DMA_IRQHandler+0x5e>
 800295a:	680a      	ldr	r2, [r1, #0]
 800295c:	f8d8 4040 	ldr.w	r4, [r8, #64]	; 0x40
 8002960:	f022 0216 	bic.w	r2, r2, #22
 8002964:	600a      	str	r2, [r1, #0]
 8002966:	694a      	ldr	r2, [r1, #20]
 8002968:	f022 0280 	bic.w	r2, r2, #128	; 0x80
 800296c:	614a      	str	r2, [r1, #20]
 800296e:	b354      	cbz	r4, 80029c6 <HAL_DMA_IRQHandler+0x1ce>
 8002970:	680a      	ldr	r2, [r1, #0]
 8002972:	f022 0208 	bic.w	r2, r2, #8
 8002976:	600a      	str	r2, [r1, #0]
 8002978:	223f      	movs	r2, #63	; 0x3f
 800297a:	f8d8 1050 	ldr.w	r1, [r8, #80]	; 0x50
 800297e:	fa02 f303 	lsl.w	r3, r2, r3
 8002982:	2401      	movs	r4, #1
 8002984:	2200      	movs	r2, #0
 8002986:	60b3      	str	r3, [r6, #8]
 8002988:	f888 4035 	strb.w	r4, [r8, #53]	; 0x35
 800298c:	f888 2034 	strb.w	r2, [r8, #52]	; 0x34
 8002990:	2900      	cmp	r1, #0
 8002992:	d0a7      	beq.n	80028e4 <HAL_DMA_IRQHandler+0xec>
 8002994:	4640      	mov	r0, r8
 8002996:	b002      	add	sp, #8
 8002998:	e8bd 41f0 	ldmia.w	sp!, {r4, r5, r6, r7, r8, lr}
 800299c:	4708      	bx	r1
 800299e:	f413 7380 	ands.w	r3, r3, #256	; 0x100
 80029a2:	f47f af6f 	bne.w	8002884 <HAL_DMA_IRQHandler+0x8c>
 80029a6:	680a      	ldr	r2, [r1, #0]
 80029a8:	2401      	movs	r4, #1
 80029aa:	f022 0210 	bic.w	r2, r2, #16
 80029ae:	600a      	str	r2, [r1, #0]
 80029b0:	f888 3034 	strb.w	r3, [r8, #52]	; 0x34
 80029b4:	f888 4035 	strb.w	r4, [r8, #53]	; 0x35
 80029b8:	e764      	b.n	8002884 <HAL_DMA_IRQHandler+0x8c>
 80029ba:	f8d8 3044 	ldr.w	r3, [r8, #68]	; 0x44
 80029be:	2b00      	cmp	r3, #0
 80029c0:	f47f af63 	bne.w	800288a <HAL_DMA_IRQHandler+0x92>
 80029c4:	e763      	b.n	800288e <HAL_DMA_IRQHandler+0x96>
 80029c6:	f8d8 2048 	ldr.w	r2, [r8, #72]	; 0x48
 80029ca:	2a00      	cmp	r2, #0
 80029cc:	d1d0      	bne.n	8002970 <HAL_DMA_IRQHandler+0x178>
 80029ce:	e7d3      	b.n	8002978 <HAL_DMA_IRQHandler+0x180>
 80029d0:	20000000 	.word	0x20000000
 80029d4:	1b4e81b5 	.word	0x1b4e81b5

080029d8 <HAL_GPIO_Init>:
 80029d8:	e92d 4ff0 	stmdb	sp!, {r4, r5, r6, r7, r8, r9, sl, fp, lr}
 80029dc:	468b      	mov	fp, r1
 80029de:	f8df c1cc 	ldr.w	ip, [pc, #460]	; 8002bac <HAL_GPIO_Init+0x1d4>
 80029e2:	6809      	ldr	r1, [r1, #0]
 80029e4:	b085      	sub	sp, #20
 80029e6:	2300      	movs	r3, #0
 80029e8:	f04f 0a01 	mov.w	sl, #1
 80029ec:	46d9      	mov	r9, fp
 80029ee:	e002      	b.n	80029f6 <HAL_GPIO_Init+0x1e>
 80029f0:	3301      	adds	r3, #1
 80029f2:	2b10      	cmp	r3, #16
 80029f4:	d079      	beq.n	8002aea <HAL_GPIO_Init+0x112>
 80029f6:	fa0a f203 	lsl.w	r2, sl, r3
 80029fa:	ea02 0b01 	and.w	fp, r2, r1
 80029fe:	438a      	bics	r2, r1
 8002a00:	d1f6      	bne.n	80029f0 <HAL_GPIO_Init+0x18>
 8002a02:	f8d9 5004 	ldr.w	r5, [r9, #4]
 8002a06:	f005 0203 	and.w	r2, r5, #3
 8002a0a:	1e54      	subs	r4, r2, #1
 8002a0c:	2c01      	cmp	r4, #1
 8002a0e:	ea4f 0743 	mov.w	r7, r3, lsl #1
 8002a12:	d96d      	bls.n	8002af0 <HAL_GPIO_Init+0x118>
 8002a14:	2a03      	cmp	r2, #3
 8002a16:	f040 80ab 	bne.w	8002b70 <HAL_GPIO_Init+0x198>
 8002a1a:	40ba      	lsls	r2, r7
 8002a1c:	43d4      	mvns	r4, r2
 8002a1e:	9400      	str	r4, [sp, #0]
 8002a20:	6807      	ldr	r7, [r0, #0]
 8002a22:	9c00      	ldr	r4, [sp, #0]
 8002a24:	403c      	ands	r4, r7
 8002a26:	4322      	orrs	r2, r4
 8002a28:	f415 3f40 	tst.w	r5, #196608	; 0x30000
 8002a2c:	6002      	str	r2, [r0, #0]
 8002a2e:	d0df      	beq.n	80029f0 <HAL_GPIO_Init+0x18>
 8002a30:	4c59      	ldr	r4, [pc, #356]	; (8002b98 <HAL_GPIO_Init+0x1c0>)
 8002a32:	2200      	movs	r2, #0
 8002a34:	9203      	str	r2, [sp, #12]
 8002a36:	6c62      	ldr	r2, [r4, #68]	; 0x44
 8002a38:	f442 4280 	orr.w	r2, r2, #16384	; 0x4000
 8002a3c:	6462      	str	r2, [r4, #68]	; 0x44
 8002a3e:	6c62      	ldr	r2, [r4, #68]	; 0x44
 8002a40:	f023 0603 	bic.w	r6, r3, #3
 8002a44:	f106 4680 	add.w	r6, r6, #1073741824	; 0x40000000
 8002a48:	f402 4280 	and.w	r2, r2, #16384	; 0x4000
 8002a4c:	f506 369c 	add.w	r6, r6, #79872	; 0x13800
 8002a50:	9203      	str	r2, [sp, #12]
 8002a52:	f003 0403 	and.w	r4, r3, #3
 8002a56:	9a03      	ldr	r2, [sp, #12]
 8002a58:	68b7      	ldr	r7, [r6, #8]
 8002a5a:	00a4      	lsls	r4, r4, #2
 8002a5c:	220f      	movs	r2, #15
 8002a5e:	40a2      	lsls	r2, r4
 8002a60:	ea27 0202 	bic.w	r2, r7, r2
 8002a64:	4f4d      	ldr	r7, [pc, #308]	; (8002b9c <HAL_GPIO_Init+0x1c4>)
 8002a66:	42b8      	cmp	r0, r7
 8002a68:	d014      	beq.n	8002a94 <HAL_GPIO_Init+0xbc>
 8002a6a:	f507 6780 	add.w	r7, r7, #1024	; 0x400
 8002a6e:	42b8      	cmp	r0, r7
 8002a70:	f000 8083 	beq.w	8002b7a <HAL_GPIO_Init+0x1a2>
 8002a74:	4f4a      	ldr	r7, [pc, #296]	; (8002ba0 <HAL_GPIO_Init+0x1c8>)
 8002a76:	42b8      	cmp	r0, r7
 8002a78:	f000 8083 	beq.w	8002b82 <HAL_GPIO_Init+0x1aa>
 8002a7c:	4f49      	ldr	r7, [pc, #292]	; (8002ba4 <HAL_GPIO_Init+0x1cc>)
 8002a7e:	42b8      	cmp	r0, r7
 8002a80:	f000 8084 	beq.w	8002b8c <HAL_GPIO_Init+0x1b4>
 8002a84:	4f48      	ldr	r7, [pc, #288]	; (8002ba8 <HAL_GPIO_Init+0x1d0>)
 8002a86:	42b8      	cmp	r0, r7
 8002a88:	bf0c      	ite	eq
 8002a8a:	2704      	moveq	r7, #4
 8002a8c:	2707      	movne	r7, #7
 8002a8e:	fa07 f404 	lsl.w	r4, r7, r4
 8002a92:	4322      	orrs	r2, r4
 8002a94:	60b2      	str	r2, [r6, #8]
 8002a96:	f8dc 2000 	ldr.w	r2, [ip]
 8002a9a:	ea6f 060b 	mvn.w	r6, fp
 8002a9e:	03ec      	lsls	r4, r5, #15
 8002aa0:	bf54      	ite	pl
 8002aa2:	4032      	andpl	r2, r6
 8002aa4:	ea4b 0202 	orrmi.w	r2, fp, r2
 8002aa8:	f8cc 2000 	str.w	r2, [ip]
 8002aac:	f8dc 4004 	ldr.w	r4, [ip, #4]
 8002ab0:	03aa      	lsls	r2, r5, #14
 8002ab2:	bf54      	ite	pl
 8002ab4:	4034      	andpl	r4, r6
 8002ab6:	ea4b 0404 	orrmi.w	r4, fp, r4
 8002aba:	f8cc 4004 	str.w	r4, [ip, #4]
 8002abe:	f8dc 4008 	ldr.w	r4, [ip, #8]
 8002ac2:	02ef      	lsls	r7, r5, #11
 8002ac4:	bf54      	ite	pl
 8002ac6:	4034      	andpl	r4, r6
 8002ac8:	ea4b 0404 	orrmi.w	r4, fp, r4
 8002acc:	f8cc 4008 	str.w	r4, [ip, #8]
 8002ad0:	f8dc 200c 	ldr.w	r2, [ip, #12]
 8002ad4:	02ac      	lsls	r4, r5, #10
 8002ad6:	f103 0301 	add.w	r3, r3, #1
 8002ada:	bf54      	ite	pl
 8002adc:	4032      	andpl	r2, r6
 8002ade:	ea4b 0202 	orrmi.w	r2, fp, r2
 8002ae2:	2b10      	cmp	r3, #16
 8002ae4:	f8cc 200c 	str.w	r2, [ip, #12]
 8002ae8:	d185      	bne.n	80029f6 <HAL_GPIO_Init+0x1e>
 8002aea:	b005      	add	sp, #20
 8002aec:	e8bd 8ff0 	ldmia.w	sp!, {r4, r5, r6, r7, r8, r9, sl, fp, pc}
 8002af0:	6886      	ldr	r6, [r0, #8]
 8002af2:	2403      	movs	r4, #3
 8002af4:	40bc      	lsls	r4, r7
 8002af6:	ea26 0e04 	bic.w	lr, r6, r4
 8002afa:	f8d9 600c 	ldr.w	r6, [r9, #12]
 8002afe:	40be      	lsls	r6, r7
 8002b00:	ea46 060e 	orr.w	r6, r6, lr
 8002b04:	6086      	str	r6, [r0, #8]
 8002b06:	f8d0 e004 	ldr.w	lr, [r0, #4]
 8002b0a:	f3c5 1600 	ubfx	r6, r5, #4, #1
 8002b0e:	ea2e 0e0b 	bic.w	lr, lr, fp
 8002b12:	409e      	lsls	r6, r3
 8002b14:	ea46 060e 	orr.w	r6, r6, lr
 8002b18:	43e4      	mvns	r4, r4
 8002b1a:	9400      	str	r4, [sp, #0]
 8002b1c:	6046      	str	r6, [r0, #4]
 8002b1e:	68c6      	ldr	r6, [r0, #12]
 8002b20:	ea06 0e04 	and.w	lr, r6, r4
 8002b24:	f8d9 6008 	ldr.w	r6, [r9, #8]
 8002b28:	40be      	lsls	r6, r7
 8002b2a:	ea46 060e 	orr.w	r6, r6, lr
 8002b2e:	2a02      	cmp	r2, #2
 8002b30:	60c6      	str	r6, [r0, #12]
 8002b32:	d001      	beq.n	8002b38 <HAL_GPIO_Init+0x160>
 8002b34:	40ba      	lsls	r2, r7
 8002b36:	e773      	b.n	8002a20 <HAL_GPIO_Init+0x48>
 8002b38:	ea4f 08d3 	mov.w	r8, r3, lsr #3
 8002b3c:	eb00 0888 	add.w	r8, r0, r8, lsl #2
 8002b40:	f003 0e07 	and.w	lr, r3, #7
 8002b44:	f8d8 4020 	ldr.w	r4, [r8, #32]
 8002b48:	9401      	str	r4, [sp, #4]
 8002b4a:	ea4f 0e8e 	mov.w	lr, lr, lsl #2
 8002b4e:	240f      	movs	r4, #15
 8002b50:	fa04 f60e 	lsl.w	r6, r4, lr
 8002b54:	9c01      	ldr	r4, [sp, #4]
 8002b56:	ea24 0606 	bic.w	r6, r4, r6
 8002b5a:	f8d9 4010 	ldr.w	r4, [r9, #16]
 8002b5e:	9601      	str	r6, [sp, #4]
 8002b60:	fa04 f60e 	lsl.w	r6, r4, lr
 8002b64:	9c01      	ldr	r4, [sp, #4]
 8002b66:	4326      	orrs	r6, r4
 8002b68:	40ba      	lsls	r2, r7
 8002b6a:	f8c8 6020 	str.w	r6, [r8, #32]
 8002b6e:	e757      	b.n	8002a20 <HAL_GPIO_Init+0x48>
 8002b70:	2403      	movs	r4, #3
 8002b72:	40bc      	lsls	r4, r7
 8002b74:	43e4      	mvns	r4, r4
 8002b76:	9400      	str	r4, [sp, #0]
 8002b78:	e7d1      	b.n	8002b1e <HAL_GPIO_Init+0x146>
 8002b7a:	fa0a f404 	lsl.w	r4, sl, r4
 8002b7e:	4322      	orrs	r2, r4
 8002b80:	e788      	b.n	8002a94 <HAL_GPIO_Init+0xbc>
 8002b82:	2702      	movs	r7, #2
 8002b84:	fa07 f404 	lsl.w	r4, r7, r4
 8002b88:	4322      	orrs	r2, r4
 8002b8a:	e783      	b.n	8002a94 <HAL_GPIO_Init+0xbc>
 8002b8c:	2703      	movs	r7, #3
 8002b8e:	fa07 f404 	lsl.w	r4, r7, r4
 8002b92:	4322      	orrs	r2, r4
 8002b94:	e77e      	b.n	8002a94 <HAL_GPIO_Init+0xbc>
 8002b96:	bf00      	nop
 8002b98:	40023800 	.word	0x40023800
 8002b9c:	40020000 	.word	0x40020000
 8002ba0:	40020800 	.word	0x40020800
 8002ba4:	40020c00 	.word	0x40020c00
 8002ba8:	40021000 	.word	0x40021000
 8002bac:	40013c00 	.word	0x40013c00

08002bb0 <HAL_GPIO_WritePin>:
 8002bb0:	b902      	cbnz	r2, 8002bb4 <HAL_GPIO_WritePin+0x4>
 8002bb2:	0409      	lsls	r1, r1, #16
 8002bb4:	6181      	str	r1, [r0, #24]
 8002bb6:	4770      	bx	lr

08002bb8 <HAL_RCC_OscConfig>:
 8002bb8:	2800      	cmp	r0, #0
 8002bba:	f000 81a5 	beq.w	8002f08 <HAL_RCC_OscConfig+0x350>
 8002bbe:	e92d 41f0 	stmdb	sp!, {r4, r5, r6, r7, r8, lr}
 8002bc2:	6803      	ldr	r3, [r0, #0]
 8002bc4:	07dd      	lsls	r5, r3, #31
 8002bc6:	b082      	sub	sp, #8
 8002bc8:	4604      	mov	r4, r0
 8002bca:	d52f      	bpl.n	8002c2c <HAL_RCC_OscConfig+0x74>
 8002bcc:	49ac      	ldr	r1, [pc, #688]	; (8002e80 <HAL_RCC_OscConfig+0x2c8>)
 8002bce:	688a      	ldr	r2, [r1, #8]
 8002bd0:	f002 020c 	and.w	r2, r2, #12
 8002bd4:	2a04      	cmp	r2, #4
 8002bd6:	f000 80ec 	beq.w	8002db2 <HAL_RCC_OscConfig+0x1fa>
 8002bda:	688a      	ldr	r2, [r1, #8]
 8002bdc:	f002 020c 	and.w	r2, r2, #12
 8002be0:	2a08      	cmp	r2, #8
 8002be2:	f000 80e2 	beq.w	8002daa <HAL_RCC_OscConfig+0x1f2>
 8002be6:	6863      	ldr	r3, [r4, #4]
 8002be8:	f5b3 3f80 	cmp.w	r3, #65536	; 0x10000
 8002bec:	f000 80eb 	beq.w	8002dc6 <HAL_RCC_OscConfig+0x20e>
 8002bf0:	f5b3 2fa0 	cmp.w	r3, #327680	; 0x50000
 8002bf4:	f000 8178 	beq.w	8002ee8 <HAL_RCC_OscConfig+0x330>
 8002bf8:	4da1      	ldr	r5, [pc, #644]	; (8002e80 <HAL_RCC_OscConfig+0x2c8>)
 8002bfa:	682a      	ldr	r2, [r5, #0]
 8002bfc:	f422 3280 	bic.w	r2, r2, #65536	; 0x10000
 8002c00:	602a      	str	r2, [r5, #0]
 8002c02:	682a      	ldr	r2, [r5, #0]
 8002c04:	f422 2280 	bic.w	r2, r2, #262144	; 0x40000
 8002c08:	602a      	str	r2, [r5, #0]
 8002c0a:	2b00      	cmp	r3, #0
 8002c0c:	f040 80e0 	bne.w	8002dd0 <HAL_RCC_OscConfig+0x218>
 8002c10:	f7ff fc7c 	bl	800250c <HAL_GetTick>
 8002c14:	4606      	mov	r6, r0
 8002c16:	e005      	b.n	8002c24 <HAL_RCC_OscConfig+0x6c>
 8002c18:	f7ff fc78 	bl	800250c <HAL_GetTick>
 8002c1c:	1b80      	subs	r0, r0, r6
 8002c1e:	2864      	cmp	r0, #100	; 0x64
 8002c20:	f200 8100 	bhi.w	8002e24 <HAL_RCC_OscConfig+0x26c>
 8002c24:	682b      	ldr	r3, [r5, #0]
 8002c26:	039b      	lsls	r3, r3, #14
 8002c28:	d4f6      	bmi.n	8002c18 <HAL_RCC_OscConfig+0x60>
 8002c2a:	6823      	ldr	r3, [r4, #0]
 8002c2c:	079f      	lsls	r7, r3, #30
 8002c2e:	d528      	bpl.n	8002c82 <HAL_RCC_OscConfig+0xca>
 8002c30:	4a93      	ldr	r2, [pc, #588]	; (8002e80 <HAL_RCC_OscConfig+0x2c8>)
 8002c32:	6891      	ldr	r1, [r2, #8]
 8002c34:	f011 0f0c 	tst.w	r1, #12
 8002c38:	f000 8090 	beq.w	8002d5c <HAL_RCC_OscConfig+0x1a4>
 8002c3c:	6891      	ldr	r1, [r2, #8]
 8002c3e:	f001 010c 	and.w	r1, r1, #12
 8002c42:	2908      	cmp	r1, #8
 8002c44:	f000 8086 	beq.w	8002d54 <HAL_RCC_OscConfig+0x19c>
 8002c48:	68e3      	ldr	r3, [r4, #12]
 8002c4a:	2b00      	cmp	r3, #0
 8002c4c:	f000 8106 	beq.w	8002e5c <HAL_RCC_OscConfig+0x2a4>
 8002c50:	4b8c      	ldr	r3, [pc, #560]	; (8002e84 <HAL_RCC_OscConfig+0x2cc>)
 8002c52:	4e8b      	ldr	r6, [pc, #556]	; (8002e80 <HAL_RCC_OscConfig+0x2c8>)
 8002c54:	2201      	movs	r2, #1
 8002c56:	601a      	str	r2, [r3, #0]
 8002c58:	f7ff fc58 	bl	800250c <HAL_GetTick>
 8002c5c:	4605      	mov	r5, r0
 8002c5e:	e005      	b.n	8002c6c <HAL_RCC_OscConfig+0xb4>
 8002c60:	f7ff fc54 	bl	800250c <HAL_GetTick>
 8002c64:	1b40      	subs	r0, r0, r5
 8002c66:	2802      	cmp	r0, #2
 8002c68:	f200 80dc 	bhi.w	8002e24 <HAL_RCC_OscConfig+0x26c>
 8002c6c:	6833      	ldr	r3, [r6, #0]
 8002c6e:	0798      	lsls	r0, r3, #30
 8002c70:	d5f6      	bpl.n	8002c60 <HAL_RCC_OscConfig+0xa8>
 8002c72:	6833      	ldr	r3, [r6, #0]
 8002c74:	6922      	ldr	r2, [r4, #16]
 8002c76:	f023 03f8 	bic.w	r3, r3, #248	; 0xf8
 8002c7a:	ea43 03c2 	orr.w	r3, r3, r2, lsl #3
 8002c7e:	6033      	str	r3, [r6, #0]
 8002c80:	6823      	ldr	r3, [r4, #0]
 8002c82:	071a      	lsls	r2, r3, #28
 8002c84:	d452      	bmi.n	8002d2c <HAL_RCC_OscConfig+0x174>
 8002c86:	0758      	lsls	r0, r3, #29
 8002c88:	d52f      	bpl.n	8002cea <HAL_RCC_OscConfig+0x132>
 8002c8a:	4a7d      	ldr	r2, [pc, #500]	; (8002e80 <HAL_RCC_OscConfig+0x2c8>)
 8002c8c:	6c13      	ldr	r3, [r2, #64]	; 0x40
 8002c8e:	f013 5380 	ands.w	r3, r3, #268435456	; 0x10000000
 8002c92:	d07e      	beq.n	8002d92 <HAL_RCC_OscConfig+0x1da>
 8002c94:	2500      	movs	r5, #0
 8002c96:	4e7c      	ldr	r6, [pc, #496]	; (8002e88 <HAL_RCC_OscConfig+0x2d0>)
 8002c98:	6833      	ldr	r3, [r6, #0]
 8002c9a:	05d9      	lsls	r1, r3, #23
 8002c9c:	f140 80b2 	bpl.w	8002e04 <HAL_RCC_OscConfig+0x24c>
 8002ca0:	68a3      	ldr	r3, [r4, #8]
 8002ca2:	2b01      	cmp	r3, #1
 8002ca4:	f000 80c2 	beq.w	8002e2c <HAL_RCC_OscConfig+0x274>
 8002ca8:	2b05      	cmp	r3, #5
 8002caa:	f000 812f 	beq.w	8002f0c <HAL_RCC_OscConfig+0x354>
 8002cae:	4e74      	ldr	r6, [pc, #464]	; (8002e80 <HAL_RCC_OscConfig+0x2c8>)
 8002cb0:	6f32      	ldr	r2, [r6, #112]	; 0x70
 8002cb2:	f022 0201 	bic.w	r2, r2, #1
 8002cb6:	6732      	str	r2, [r6, #112]	; 0x70
 8002cb8:	6f32      	ldr	r2, [r6, #112]	; 0x70
 8002cba:	f022 0204 	bic.w	r2, r2, #4
 8002cbe:	6732      	str	r2, [r6, #112]	; 0x70
 8002cc0:	2b00      	cmp	r3, #0
 8002cc2:	f040 80b8 	bne.w	8002e36 <HAL_RCC_OscConfig+0x27e>
 8002cc6:	f7ff fc21 	bl	800250c <HAL_GetTick>
 8002cca:	f241 3888 	movw	r8, #5000	; 0x1388
 8002cce:	4607      	mov	r7, r0
 8002cd0:	e005      	b.n	8002cde <HAL_RCC_OscConfig+0x126>
 8002cd2:	f7ff fc1b 	bl	800250c <HAL_GetTick>
 8002cd6:	1bc0      	subs	r0, r0, r7
 8002cd8:	4540      	cmp	r0, r8
 8002cda:	f200 80a3 	bhi.w	8002e24 <HAL_RCC_OscConfig+0x26c>
 8002cde:	6f33      	ldr	r3, [r6, #112]	; 0x70
 8002ce0:	0798      	lsls	r0, r3, #30
 8002ce2:	d4f6      	bmi.n	8002cd2 <HAL_RCC_OscConfig+0x11a>
 8002ce4:	2d00      	cmp	r5, #0
 8002ce6:	f040 8109 	bne.w	8002efc <HAL_RCC_OscConfig+0x344>
 8002cea:	69a0      	ldr	r0, [r4, #24]
 8002cec:	b1d0      	cbz	r0, 8002d24 <HAL_RCC_OscConfig+0x16c>
 8002cee:	4d64      	ldr	r5, [pc, #400]	; (8002e80 <HAL_RCC_OscConfig+0x2c8>)
 8002cf0:	68ab      	ldr	r3, [r5, #8]
 8002cf2:	f003 030c 	and.w	r3, r3, #12
 8002cf6:	2b08      	cmp	r3, #8
 8002cf8:	f000 80cc 	beq.w	8002e94 <HAL_RCC_OscConfig+0x2dc>
 8002cfc:	4b63      	ldr	r3, [pc, #396]	; (8002e8c <HAL_RCC_OscConfig+0x2d4>)
 8002cfe:	2200      	movs	r2, #0
 8002d00:	2802      	cmp	r0, #2
 8002d02:	601a      	str	r2, [r3, #0]
 8002d04:	f000 810c 	beq.w	8002f20 <HAL_RCC_OscConfig+0x368>
 8002d08:	f7ff fc00 	bl	800250c <HAL_GetTick>
 8002d0c:	462c      	mov	r4, r5
 8002d0e:	4605      	mov	r5, r0
 8002d10:	e005      	b.n	8002d1e <HAL_RCC_OscConfig+0x166>
 8002d12:	f7ff fbfb 	bl	800250c <HAL_GetTick>
 8002d16:	1b40      	subs	r0, r0, r5
 8002d18:	2802      	cmp	r0, #2
 8002d1a:	f200 8083 	bhi.w	8002e24 <HAL_RCC_OscConfig+0x26c>
 8002d1e:	6823      	ldr	r3, [r4, #0]
 8002d20:	019b      	lsls	r3, r3, #6
 8002d22:	d4f6      	bmi.n	8002d12 <HAL_RCC_OscConfig+0x15a>
 8002d24:	2000      	movs	r0, #0
 8002d26:	b002      	add	sp, #8
 8002d28:	e8bd 81f0 	ldmia.w	sp!, {r4, r5, r6, r7, r8, pc}
 8002d2c:	6963      	ldr	r3, [r4, #20]
 8002d2e:	b303      	cbz	r3, 8002d72 <HAL_RCC_OscConfig+0x1ba>
 8002d30:	4b57      	ldr	r3, [pc, #348]	; (8002e90 <HAL_RCC_OscConfig+0x2d8>)
 8002d32:	4e53      	ldr	r6, [pc, #332]	; (8002e80 <HAL_RCC_OscConfig+0x2c8>)
 8002d34:	2201      	movs	r2, #1
 8002d36:	601a      	str	r2, [r3, #0]
 8002d38:	f7ff fbe8 	bl	800250c <HAL_GetTick>
 8002d3c:	4605      	mov	r5, r0
 8002d3e:	e004      	b.n	8002d4a <HAL_RCC_OscConfig+0x192>
 8002d40:	f7ff fbe4 	bl	800250c <HAL_GetTick>
 8002d44:	1b40      	subs	r0, r0, r5
 8002d46:	2802      	cmp	r0, #2
 8002d48:	d86c      	bhi.n	8002e24 <HAL_RCC_OscConfig+0x26c>
 8002d4a:	6f73      	ldr	r3, [r6, #116]	; 0x74
 8002d4c:	079b      	lsls	r3, r3, #30
 8002d4e:	d5f7      	bpl.n	8002d40 <HAL_RCC_OscConfig+0x188>
 8002d50:	6823      	ldr	r3, [r4, #0]
 8002d52:	e798      	b.n	8002c86 <HAL_RCC_OscConfig+0xce>
 8002d54:	6852      	ldr	r2, [r2, #4]
 8002d56:	0256      	lsls	r6, r2, #9
 8002d58:	f53f af76 	bmi.w	8002c48 <HAL_RCC_OscConfig+0x90>
 8002d5c:	4a48      	ldr	r2, [pc, #288]	; (8002e80 <HAL_RCC_OscConfig+0x2c8>)
 8002d5e:	6812      	ldr	r2, [r2, #0]
 8002d60:	0795      	lsls	r5, r2, #30
 8002d62:	d543      	bpl.n	8002dec <HAL_RCC_OscConfig+0x234>
 8002d64:	68e2      	ldr	r2, [r4, #12]
 8002d66:	2a01      	cmp	r2, #1
 8002d68:	d040      	beq.n	8002dec <HAL_RCC_OscConfig+0x234>
 8002d6a:	2001      	movs	r0, #1
 8002d6c:	b002      	add	sp, #8
 8002d6e:	e8bd 81f0 	ldmia.w	sp!, {r4, r5, r6, r7, r8, pc}
 8002d72:	4a47      	ldr	r2, [pc, #284]	; (8002e90 <HAL_RCC_OscConfig+0x2d8>)
 8002d74:	4e42      	ldr	r6, [pc, #264]	; (8002e80 <HAL_RCC_OscConfig+0x2c8>)
 8002d76:	6013      	str	r3, [r2, #0]
 8002d78:	f7ff fbc8 	bl	800250c <HAL_GetTick>
 8002d7c:	4605      	mov	r5, r0
 8002d7e:	e004      	b.n	8002d8a <HAL_RCC_OscConfig+0x1d2>
 8002d80:	f7ff fbc4 	bl	800250c <HAL_GetTick>
 8002d84:	1b40      	subs	r0, r0, r5
 8002d86:	2802      	cmp	r0, #2
 8002d88:	d84c      	bhi.n	8002e24 <HAL_RCC_OscConfig+0x26c>
 8002d8a:	6f73      	ldr	r3, [r6, #116]	; 0x74
 8002d8c:	079f      	lsls	r7, r3, #30
 8002d8e:	d4f7      	bmi.n	8002d80 <HAL_RCC_OscConfig+0x1c8>
 8002d90:	e7de      	b.n	8002d50 <HAL_RCC_OscConfig+0x198>
 8002d92:	9301      	str	r3, [sp, #4]
 8002d94:	6c13      	ldr	r3, [r2, #64]	; 0x40
 8002d96:	f043 5380 	orr.w	r3, r3, #268435456	; 0x10000000
 8002d9a:	6413      	str	r3, [r2, #64]	; 0x40
 8002d9c:	6c13      	ldr	r3, [r2, #64]	; 0x40
 8002d9e:	f003 5380 	and.w	r3, r3, #268435456	; 0x10000000
 8002da2:	9301      	str	r3, [sp, #4]
 8002da4:	9b01      	ldr	r3, [sp, #4]
 8002da6:	2501      	movs	r5, #1
 8002da8:	e775      	b.n	8002c96 <HAL_RCC_OscConfig+0xde>
 8002daa:	684a      	ldr	r2, [r1, #4]
 8002dac:	0250      	lsls	r0, r2, #9
 8002dae:	f57f af1a 	bpl.w	8002be6 <HAL_RCC_OscConfig+0x2e>
 8002db2:	4a33      	ldr	r2, [pc, #204]	; (8002e80 <HAL_RCC_OscConfig+0x2c8>)
 8002db4:	6812      	ldr	r2, [r2, #0]
 8002db6:	0391      	lsls	r1, r2, #14
 8002db8:	f57f af38 	bpl.w	8002c2c <HAL_RCC_OscConfig+0x74>
 8002dbc:	6862      	ldr	r2, [r4, #4]
 8002dbe:	2a00      	cmp	r2, #0
 8002dc0:	f47f af34 	bne.w	8002c2c <HAL_RCC_OscConfig+0x74>
 8002dc4:	e7d1      	b.n	8002d6a <HAL_RCC_OscConfig+0x1b2>
 8002dc6:	4a2e      	ldr	r2, [pc, #184]	; (8002e80 <HAL_RCC_OscConfig+0x2c8>)
 8002dc8:	6813      	ldr	r3, [r2, #0]
 8002dca:	f443 3380 	orr.w	r3, r3, #65536	; 0x10000
 8002dce:	6013      	str	r3, [r2, #0]
 8002dd0:	f7ff fb9c 	bl	800250c <HAL_GetTick>
 8002dd4:	4e2a      	ldr	r6, [pc, #168]	; (8002e80 <HAL_RCC_OscConfig+0x2c8>)
 8002dd6:	4605      	mov	r5, r0
 8002dd8:	e004      	b.n	8002de4 <HAL_RCC_OscConfig+0x22c>
 8002dda:	f7ff fb97 	bl	800250c <HAL_GetTick>
 8002dde:	1b40      	subs	r0, r0, r5
 8002de0:	2864      	cmp	r0, #100	; 0x64
 8002de2:	d81f      	bhi.n	8002e24 <HAL_RCC_OscConfig+0x26c>
 8002de4:	6833      	ldr	r3, [r6, #0]
 8002de6:	039a      	lsls	r2, r3, #14
 8002de8:	d5f7      	bpl.n	8002dda <HAL_RCC_OscConfig+0x222>
 8002dea:	e71e      	b.n	8002c2a <HAL_RCC_OscConfig+0x72>
 8002dec:	4924      	ldr	r1, [pc, #144]	; (8002e80 <HAL_RCC_OscConfig+0x2c8>)
 8002dee:	6920      	ldr	r0, [r4, #16]
 8002df0:	680a      	ldr	r2, [r1, #0]
 8002df2:	f022 02f8 	bic.w	r2, r2, #248	; 0xf8
 8002df6:	ea42 02c0 	orr.w	r2, r2, r0, lsl #3
 8002dfa:	600a      	str	r2, [r1, #0]
 8002dfc:	071a      	lsls	r2, r3, #28
 8002dfe:	f57f af42 	bpl.w	8002c86 <HAL_RCC_OscConfig+0xce>
 8002e02:	e793      	b.n	8002d2c <HAL_RCC_OscConfig+0x174>
 8002e04:	6833      	ldr	r3, [r6, #0]
 8002e06:	f443 7380 	orr.w	r3, r3, #256	; 0x100
 8002e0a:	6033      	str	r3, [r6, #0]
 8002e0c:	f7ff fb7e 	bl	800250c <HAL_GetTick>
 8002e10:	4607      	mov	r7, r0
 8002e12:	6833      	ldr	r3, [r6, #0]
 8002e14:	05da      	lsls	r2, r3, #23
 8002e16:	f53f af43 	bmi.w	8002ca0 <HAL_RCC_OscConfig+0xe8>
 8002e1a:	f7ff fb77 	bl	800250c <HAL_GetTick>
 8002e1e:	1bc0      	subs	r0, r0, r7
 8002e20:	2802      	cmp	r0, #2
 8002e22:	d9f6      	bls.n	8002e12 <HAL_RCC_OscConfig+0x25a>
 8002e24:	2003      	movs	r0, #3
 8002e26:	b002      	add	sp, #8
 8002e28:	e8bd 81f0 	ldmia.w	sp!, {r4, r5, r6, r7, r8, pc}
 8002e2c:	4a14      	ldr	r2, [pc, #80]	; (8002e80 <HAL_RCC_OscConfig+0x2c8>)
 8002e2e:	6f13      	ldr	r3, [r2, #112]	; 0x70
 8002e30:	f043 0301 	orr.w	r3, r3, #1
 8002e34:	6713      	str	r3, [r2, #112]	; 0x70
 8002e36:	f7ff fb69 	bl	800250c <HAL_GetTick>
 8002e3a:	4f11      	ldr	r7, [pc, #68]	; (8002e80 <HAL_RCC_OscConfig+0x2c8>)
 8002e3c:	4606      	mov	r6, r0
 8002e3e:	f241 3888 	movw	r8, #5000	; 0x1388
 8002e42:	e004      	b.n	8002e4e <HAL_RCC_OscConfig+0x296>
 8002e44:	f7ff fb62 	bl	800250c <HAL_GetTick>
 8002e48:	1b80      	subs	r0, r0, r6
 8002e4a:	4540      	cmp	r0, r8
 8002e4c:	d8ea      	bhi.n	8002e24 <HAL_RCC_OscConfig+0x26c>
 8002e4e:	6f3b      	ldr	r3, [r7, #112]	; 0x70
 8002e50:	079b      	lsls	r3, r3, #30
 8002e52:	d5f7      	bpl.n	8002e44 <HAL_RCC_OscConfig+0x28c>
 8002e54:	2d00      	cmp	r5, #0
 8002e56:	f43f af48 	beq.w	8002cea <HAL_RCC_OscConfig+0x132>
 8002e5a:	e04f      	b.n	8002efc <HAL_RCC_OscConfig+0x344>
 8002e5c:	4a09      	ldr	r2, [pc, #36]	; (8002e84 <HAL_RCC_OscConfig+0x2cc>)
 8002e5e:	4e08      	ldr	r6, [pc, #32]	; (8002e80 <HAL_RCC_OscConfig+0x2c8>)
 8002e60:	6013      	str	r3, [r2, #0]
 8002e62:	f7ff fb53 	bl	800250c <HAL_GetTick>
 8002e66:	4605      	mov	r5, r0
 8002e68:	e004      	b.n	8002e74 <HAL_RCC_OscConfig+0x2bc>
 8002e6a:	f7ff fb4f 	bl	800250c <HAL_GetTick>
 8002e6e:	1b40      	subs	r0, r0, r5
 8002e70:	2802      	cmp	r0, #2
 8002e72:	d8d7      	bhi.n	8002e24 <HAL_RCC_OscConfig+0x26c>
 8002e74:	6833      	ldr	r3, [r6, #0]
 8002e76:	0799      	lsls	r1, r3, #30
 8002e78:	d4f7      	bmi.n	8002e6a <HAL_RCC_OscConfig+0x2b2>
 8002e7a:	6823      	ldr	r3, [r4, #0]
 8002e7c:	e701      	b.n	8002c82 <HAL_RCC_OscConfig+0xca>
 8002e7e:	bf00      	nop
 8002e80:	40023800 	.word	0x40023800
 8002e84:	42470000 	.word	0x42470000
 8002e88:	40007000 	.word	0x40007000
 8002e8c:	42470060 	.word	0x42470060
 8002e90:	42470e80 	.word	0x42470e80
 8002e94:	2801      	cmp	r0, #1
 8002e96:	f43f af46 	beq.w	8002d26 <HAL_RCC_OscConfig+0x16e>
 8002e9a:	686b      	ldr	r3, [r5, #4]
 8002e9c:	69e2      	ldr	r2, [r4, #28]
 8002e9e:	f403 0180 	and.w	r1, r3, #4194304	; 0x400000
 8002ea2:	4291      	cmp	r1, r2
 8002ea4:	f47f af61 	bne.w	8002d6a <HAL_RCC_OscConfig+0x1b2>
 8002ea8:	6a22      	ldr	r2, [r4, #32]
 8002eaa:	f003 013f 	and.w	r1, r3, #63	; 0x3f
 8002eae:	4291      	cmp	r1, r2
 8002eb0:	f47f af5b 	bne.w	8002d6a <HAL_RCC_OscConfig+0x1b2>
 8002eb4:	6a61      	ldr	r1, [r4, #36]	; 0x24
 8002eb6:	f647 72c0 	movw	r2, #32704	; 0x7fc0
 8002eba:	401a      	ands	r2, r3
 8002ebc:	ebb2 1f81 	cmp.w	r2, r1, lsl #6
 8002ec0:	f47f af53 	bne.w	8002d6a <HAL_RCC_OscConfig+0x1b2>
 8002ec4:	6aa2      	ldr	r2, [r4, #40]	; 0x28
 8002ec6:	0852      	lsrs	r2, r2, #1
 8002ec8:	3a01      	subs	r2, #1
 8002eca:	f403 3140 	and.w	r1, r3, #196608	; 0x30000
 8002ece:	ebb1 4f02 	cmp.w	r1, r2, lsl #16
 8002ed2:	f47f af4a 	bne.w	8002d6a <HAL_RCC_OscConfig+0x1b2>
 8002ed6:	6ae2      	ldr	r2, [r4, #44]	; 0x2c
 8002ed8:	f003 6370 	and.w	r3, r3, #251658240	; 0xf000000
 8002edc:	ebb3 6f02 	cmp.w	r3, r2, lsl #24
 8002ee0:	bf14      	ite	ne
 8002ee2:	2001      	movne	r0, #1
 8002ee4:	2000      	moveq	r0, #0
 8002ee6:	e71e      	b.n	8002d26 <HAL_RCC_OscConfig+0x16e>
 8002ee8:	4b24      	ldr	r3, [pc, #144]	; (8002f7c <HAL_RCC_OscConfig+0x3c4>)
 8002eea:	681a      	ldr	r2, [r3, #0]
 8002eec:	f442 2280 	orr.w	r2, r2, #262144	; 0x40000
 8002ef0:	601a      	str	r2, [r3, #0]
 8002ef2:	681a      	ldr	r2, [r3, #0]
 8002ef4:	f442 3280 	orr.w	r2, r2, #65536	; 0x10000
 8002ef8:	601a      	str	r2, [r3, #0]
 8002efa:	e769      	b.n	8002dd0 <HAL_RCC_OscConfig+0x218>
 8002efc:	4a1f      	ldr	r2, [pc, #124]	; (8002f7c <HAL_RCC_OscConfig+0x3c4>)
 8002efe:	6c13      	ldr	r3, [r2, #64]	; 0x40
 8002f00:	f023 5380 	bic.w	r3, r3, #268435456	; 0x10000000
 8002f04:	6413      	str	r3, [r2, #64]	; 0x40
 8002f06:	e6f0      	b.n	8002cea <HAL_RCC_OscConfig+0x132>
 8002f08:	2001      	movs	r0, #1
 8002f0a:	4770      	bx	lr
 8002f0c:	4b1b      	ldr	r3, [pc, #108]	; (8002f7c <HAL_RCC_OscConfig+0x3c4>)
 8002f0e:	6f1a      	ldr	r2, [r3, #112]	; 0x70
 8002f10:	f042 0204 	orr.w	r2, r2, #4
 8002f14:	671a      	str	r2, [r3, #112]	; 0x70
 8002f16:	6f1a      	ldr	r2, [r3, #112]	; 0x70
 8002f18:	f042 0201 	orr.w	r2, r2, #1
 8002f1c:	671a      	str	r2, [r3, #112]	; 0x70
 8002f1e:	e78a      	b.n	8002e36 <HAL_RCC_OscConfig+0x27e>
 8002f20:	f7ff faf4 	bl	800250c <HAL_GetTick>
 8002f24:	4606      	mov	r6, r0
 8002f26:	e005      	b.n	8002f34 <HAL_RCC_OscConfig+0x37c>
 8002f28:	f7ff faf0 	bl	800250c <HAL_GetTick>
 8002f2c:	1b80      	subs	r0, r0, r6
 8002f2e:	2802      	cmp	r0, #2
 8002f30:	f63f af78 	bhi.w	8002e24 <HAL_RCC_OscConfig+0x26c>
 8002f34:	682b      	ldr	r3, [r5, #0]
 8002f36:	0199      	lsls	r1, r3, #6
 8002f38:	d4f6      	bmi.n	8002f28 <HAL_RCC_OscConfig+0x370>
 8002f3a:	e9d4 3607 	ldrd	r3, r6, [r4, #28]
 8002f3e:	e9d4 0209 	ldrd	r0, r2, [r4, #36]	; 0x24
 8002f42:	6ae1      	ldr	r1, [r4, #44]	; 0x2c
 8002f44:	4333      	orrs	r3, r6
 8002f46:	ea43 1380 	orr.w	r3, r3, r0, lsl #6
 8002f4a:	0852      	lsrs	r2, r2, #1
 8002f4c:	ea43 6301 	orr.w	r3, r3, r1, lsl #24
 8002f50:	3a01      	subs	r2, #1
 8002f52:	490b      	ldr	r1, [pc, #44]	; (8002f80 <HAL_RCC_OscConfig+0x3c8>)
 8002f54:	4e09      	ldr	r6, [pc, #36]	; (8002f7c <HAL_RCC_OscConfig+0x3c4>)
 8002f56:	ea43 4302 	orr.w	r3, r3, r2, lsl #16
 8002f5a:	2201      	movs	r2, #1
 8002f5c:	606b      	str	r3, [r5, #4]
 8002f5e:	600a      	str	r2, [r1, #0]
 8002f60:	f7ff fad4 	bl	800250c <HAL_GetTick>
 8002f64:	4604      	mov	r4, r0
 8002f66:	e005      	b.n	8002f74 <HAL_RCC_OscConfig+0x3bc>
 8002f68:	f7ff fad0 	bl	800250c <HAL_GetTick>
 8002f6c:	1b00      	subs	r0, r0, r4
 8002f6e:	2802      	cmp	r0, #2
 8002f70:	f63f af58 	bhi.w	8002e24 <HAL_RCC_OscConfig+0x26c>
 8002f74:	6833      	ldr	r3, [r6, #0]
 8002f76:	019a      	lsls	r2, r3, #6
 8002f78:	d5f6      	bpl.n	8002f68 <HAL_RCC_OscConfig+0x3b0>
 8002f7a:	e6d3      	b.n	8002d24 <HAL_RCC_OscConfig+0x16c>
 8002f7c:	40023800 	.word	0x40023800
 8002f80:	42470060 	.word	0x42470060

08002f84 <HAL_RCC_GetSysClockFreq>:
 8002f84:	4917      	ldr	r1, [pc, #92]	; (8002fe4 <HAL_RCC_GetSysClockFreq+0x60>)
 8002f86:	b508      	push	{r3, lr}
 8002f88:	688b      	ldr	r3, [r1, #8]
 8002f8a:	f003 030c 	and.w	r3, r3, #12
 8002f8e:	2b04      	cmp	r3, #4
 8002f90:	d01b      	beq.n	8002fca <HAL_RCC_GetSysClockFreq+0x46>
 8002f92:	2b08      	cmp	r3, #8
 8002f94:	d117      	bne.n	8002fc6 <HAL_RCC_GetSysClockFreq+0x42>
 8002f96:	684a      	ldr	r2, [r1, #4]
 8002f98:	684b      	ldr	r3, [r1, #4]
 8002f9a:	f413 0380 	ands.w	r3, r3, #4194304	; 0x400000
 8002f9e:	f002 023f 	and.w	r2, r2, #63	; 0x3f
 8002fa2:	d114      	bne.n	8002fce <HAL_RCC_GetSysClockFreq+0x4a>
 8002fa4:	6849      	ldr	r1, [r1, #4]
 8002fa6:	4810      	ldr	r0, [pc, #64]	; (8002fe8 <HAL_RCC_GetSysClockFreq+0x64>)
 8002fa8:	f3c1 1188 	ubfx	r1, r1, #6, #9
 8002fac:	fba1 0100 	umull	r0, r1, r1, r0
 8002fb0:	f7fd f966 	bl	8000280 <__aeabi_uldivmod>
 8002fb4:	4b0b      	ldr	r3, [pc, #44]	; (8002fe4 <HAL_RCC_GetSysClockFreq+0x60>)
 8002fb6:	685b      	ldr	r3, [r3, #4]
 8002fb8:	f3c3 4301 	ubfx	r3, r3, #16, #2
 8002fbc:	3301      	adds	r3, #1
 8002fbe:	005b      	lsls	r3, r3, #1
 8002fc0:	fbb0 f0f3 	udiv	r0, r0, r3
 8002fc4:	bd08      	pop	{r3, pc}
 8002fc6:	4808      	ldr	r0, [pc, #32]	; (8002fe8 <HAL_RCC_GetSysClockFreq+0x64>)
 8002fc8:	bd08      	pop	{r3, pc}
 8002fca:	4808      	ldr	r0, [pc, #32]	; (8002fec <HAL_RCC_GetSysClockFreq+0x68>)
 8002fcc:	bd08      	pop	{r3, pc}
 8002fce:	684b      	ldr	r3, [r1, #4]
 8002fd0:	4806      	ldr	r0, [pc, #24]	; (8002fec <HAL_RCC_GetSysClockFreq+0x68>)
 8002fd2:	f3c3 1388 	ubfx	r3, r3, #6, #9
 8002fd6:	fba3 0100 	umull	r0, r1, r3, r0
 8002fda:	2300      	movs	r3, #0
 8002fdc:	f7fd f950 	bl	8000280 <__aeabi_uldivmod>
 8002fe0:	e7e8      	b.n	8002fb4 <HAL_RCC_GetSysClockFreq+0x30>
 8002fe2:	bf00      	nop
 8002fe4:	40023800 	.word	0x40023800
 8002fe8:	00f42400 	.word	0x00f42400
 8002fec:	017d7840 	.word	0x017d7840

08002ff0 <HAL_RCC_ClockConfig>:
 8002ff0:	2800      	cmp	r0, #0
 8002ff2:	f000 8087 	beq.w	8003104 <HAL_RCC_ClockConfig+0x114>
 8002ff6:	4a48      	ldr	r2, [pc, #288]	; (8003118 <HAL_RCC_ClockConfig+0x128>)
 8002ff8:	6813      	ldr	r3, [r2, #0]
 8002ffa:	f003 0307 	and.w	r3, r3, #7
 8002ffe:	428b      	cmp	r3, r1
 8003000:	e92d 41f0 	stmdb	sp!, {r4, r5, r6, r7, r8, lr}
 8003004:	460d      	mov	r5, r1
 8003006:	4604      	mov	r4, r0
 8003008:	d209      	bcs.n	800301e <HAL_RCC_ClockConfig+0x2e>
 800300a:	b2cb      	uxtb	r3, r1
 800300c:	7013      	strb	r3, [r2, #0]
 800300e:	6813      	ldr	r3, [r2, #0]
 8003010:	f003 0307 	and.w	r3, r3, #7
 8003014:	428b      	cmp	r3, r1
 8003016:	d002      	beq.n	800301e <HAL_RCC_ClockConfig+0x2e>
 8003018:	2001      	movs	r0, #1
 800301a:	e8bd 81f0 	ldmia.w	sp!, {r4, r5, r6, r7, r8, pc}
 800301e:	6823      	ldr	r3, [r4, #0]
 8003020:	0798      	lsls	r0, r3, #30
 8003022:	d514      	bpl.n	800304e <HAL_RCC_ClockConfig+0x5e>
 8003024:	0759      	lsls	r1, r3, #29
 8003026:	d504      	bpl.n	8003032 <HAL_RCC_ClockConfig+0x42>
 8003028:	493c      	ldr	r1, [pc, #240]	; (800311c <HAL_RCC_ClockConfig+0x12c>)
 800302a:	688a      	ldr	r2, [r1, #8]
 800302c:	f442 52e0 	orr.w	r2, r2, #7168	; 0x1c00
 8003030:	608a      	str	r2, [r1, #8]
 8003032:	071a      	lsls	r2, r3, #28
 8003034:	d504      	bpl.n	8003040 <HAL_RCC_ClockConfig+0x50>
 8003036:	4939      	ldr	r1, [pc, #228]	; (800311c <HAL_RCC_ClockConfig+0x12c>)
 8003038:	688a      	ldr	r2, [r1, #8]
 800303a:	f442 4260 	orr.w	r2, r2, #57344	; 0xe000
 800303e:	608a      	str	r2, [r1, #8]
 8003040:	4936      	ldr	r1, [pc, #216]	; (800311c <HAL_RCC_ClockConfig+0x12c>)
 8003042:	68a0      	ldr	r0, [r4, #8]
 8003044:	688a      	ldr	r2, [r1, #8]
 8003046:	f022 02f0 	bic.w	r2, r2, #240	; 0xf0
 800304a:	4302      	orrs	r2, r0
 800304c:	608a      	str	r2, [r1, #8]
 800304e:	07df      	lsls	r7, r3, #31
 8003050:	d521      	bpl.n	8003096 <HAL_RCC_ClockConfig+0xa6>
 8003052:	6862      	ldr	r2, [r4, #4]
 8003054:	2a01      	cmp	r2, #1
 8003056:	d057      	beq.n	8003108 <HAL_RCC_ClockConfig+0x118>
 8003058:	1e93      	subs	r3, r2, #2
 800305a:	2b01      	cmp	r3, #1
 800305c:	4b2f      	ldr	r3, [pc, #188]	; (800311c <HAL_RCC_ClockConfig+0x12c>)
 800305e:	681b      	ldr	r3, [r3, #0]
 8003060:	d94d      	bls.n	80030fe <HAL_RCC_ClockConfig+0x10e>
 8003062:	0799      	lsls	r1, r3, #30
 8003064:	d5d8      	bpl.n	8003018 <HAL_RCC_ClockConfig+0x28>
 8003066:	4e2d      	ldr	r6, [pc, #180]	; (800311c <HAL_RCC_ClockConfig+0x12c>)
 8003068:	68b3      	ldr	r3, [r6, #8]
 800306a:	f023 0303 	bic.w	r3, r3, #3
 800306e:	4313      	orrs	r3, r2
 8003070:	60b3      	str	r3, [r6, #8]
 8003072:	f7ff fa4b 	bl	800250c <HAL_GetTick>
 8003076:	f241 3888 	movw	r8, #5000	; 0x1388
 800307a:	4607      	mov	r7, r0
 800307c:	e004      	b.n	8003088 <HAL_RCC_ClockConfig+0x98>
 800307e:	f7ff fa45 	bl	800250c <HAL_GetTick>
 8003082:	1bc0      	subs	r0, r0, r7
 8003084:	4540      	cmp	r0, r8
 8003086:	d844      	bhi.n	8003112 <HAL_RCC_ClockConfig+0x122>
 8003088:	68b3      	ldr	r3, [r6, #8]
 800308a:	6862      	ldr	r2, [r4, #4]
 800308c:	f003 030c 	and.w	r3, r3, #12
 8003090:	ebb3 0f82 	cmp.w	r3, r2, lsl #2
 8003094:	d1f3      	bne.n	800307e <HAL_RCC_ClockConfig+0x8e>
 8003096:	4a20      	ldr	r2, [pc, #128]	; (8003118 <HAL_RCC_ClockConfig+0x128>)
 8003098:	6813      	ldr	r3, [r2, #0]
 800309a:	f003 0307 	and.w	r3, r3, #7
 800309e:	42ab      	cmp	r3, r5
 80030a0:	d906      	bls.n	80030b0 <HAL_RCC_ClockConfig+0xc0>
 80030a2:	b2eb      	uxtb	r3, r5
 80030a4:	7013      	strb	r3, [r2, #0]
 80030a6:	6813      	ldr	r3, [r2, #0]
 80030a8:	f003 0307 	and.w	r3, r3, #7
 80030ac:	42ab      	cmp	r3, r5
 80030ae:	d1b3      	bne.n	8003018 <HAL_RCC_ClockConfig+0x28>
 80030b0:	6823      	ldr	r3, [r4, #0]
 80030b2:	075a      	lsls	r2, r3, #29
 80030b4:	d506      	bpl.n	80030c4 <HAL_RCC_ClockConfig+0xd4>
 80030b6:	4919      	ldr	r1, [pc, #100]	; (800311c <HAL_RCC_ClockConfig+0x12c>)
 80030b8:	68e0      	ldr	r0, [r4, #12]
 80030ba:	688a      	ldr	r2, [r1, #8]
 80030bc:	f422 52e0 	bic.w	r2, r2, #7168	; 0x1c00
 80030c0:	4302      	orrs	r2, r0
 80030c2:	608a      	str	r2, [r1, #8]
 80030c4:	071b      	lsls	r3, r3, #28
 80030c6:	d507      	bpl.n	80030d8 <HAL_RCC_ClockConfig+0xe8>
 80030c8:	4a14      	ldr	r2, [pc, #80]	; (800311c <HAL_RCC_ClockConfig+0x12c>)
 80030ca:	6921      	ldr	r1, [r4, #16]
 80030cc:	6893      	ldr	r3, [r2, #8]
 80030ce:	f423 4360 	bic.w	r3, r3, #57344	; 0xe000
 80030d2:	ea43 03c1 	orr.w	r3, r3, r1, lsl #3
 80030d6:	6093      	str	r3, [r2, #8]
 80030d8:	f7ff ff54 	bl	8002f84 <HAL_RCC_GetSysClockFreq>
 80030dc:	4a0f      	ldr	r2, [pc, #60]	; (800311c <HAL_RCC_ClockConfig+0x12c>)
 80030de:	4c10      	ldr	r4, [pc, #64]	; (8003120 <HAL_RCC_ClockConfig+0x130>)
 80030e0:	6892      	ldr	r2, [r2, #8]
 80030e2:	4910      	ldr	r1, [pc, #64]	; (8003124 <HAL_RCC_ClockConfig+0x134>)
 80030e4:	f3c2 1203 	ubfx	r2, r2, #4, #4
 80030e8:	4603      	mov	r3, r0
 80030ea:	5ca2      	ldrb	r2, [r4, r2]
 80030ec:	480e      	ldr	r0, [pc, #56]	; (8003128 <HAL_RCC_ClockConfig+0x138>)
 80030ee:	40d3      	lsrs	r3, r2
 80030f0:	6800      	ldr	r0, [r0, #0]
 80030f2:	600b      	str	r3, [r1, #0]
 80030f4:	f7ff f9c0 	bl	8002478 <HAL_InitTick>
 80030f8:	2000      	movs	r0, #0
 80030fa:	e8bd 81f0 	ldmia.w	sp!, {r4, r5, r6, r7, r8, pc}
 80030fe:	0198      	lsls	r0, r3, #6
 8003100:	d4b1      	bmi.n	8003066 <HAL_RCC_ClockConfig+0x76>
 8003102:	e789      	b.n	8003018 <HAL_RCC_ClockConfig+0x28>
 8003104:	2001      	movs	r0, #1
 8003106:	4770      	bx	lr
 8003108:	4b04      	ldr	r3, [pc, #16]	; (800311c <HAL_RCC_ClockConfig+0x12c>)
 800310a:	681b      	ldr	r3, [r3, #0]
 800310c:	039e      	lsls	r6, r3, #14
 800310e:	d4aa      	bmi.n	8003066 <HAL_RCC_ClockConfig+0x76>
 8003110:	e782      	b.n	8003018 <HAL_RCC_ClockConfig+0x28>
 8003112:	2003      	movs	r0, #3
 8003114:	e781      	b.n	800301a <HAL_RCC_ClockConfig+0x2a>
 8003116:	bf00      	nop
 8003118:	40023c00 	.word	0x40023c00
 800311c:	40023800 	.word	0x40023800
 8003120:	080040c8 	.word	0x080040c8
 8003124:	20000000 	.word	0x20000000
 8003128:	20000010 	.word	0x20000010

0800312c <SPI_WaitFlagStateUntilTimeout.constprop.0>:
 800312c:	e92d 41f0 	stmdb	sp!, {r4, r5, r6, r7, r8, lr}
 8003130:	b082      	sub	sp, #8
 8003132:	4698      	mov	r8, r3
 8003134:	4616      	mov	r6, r2
 8003136:	460c      	mov	r4, r1
 8003138:	4607      	mov	r7, r0
 800313a:	f7ff f9e7 	bl	800250c <HAL_GetTick>
 800313e:	44b0      	add	r8, r6
 8003140:	eba8 0500 	sub.w	r5, r8, r0
 8003144:	f7ff f9e2 	bl	800250c <HAL_GetTick>
 8003148:	4b27      	ldr	r3, [pc, #156]	; (80031e8 <SPI_WaitFlagStateUntilTimeout.constprop.0+0xbc>)
 800314a:	681b      	ldr	r3, [r3, #0]
 800314c:	f3c3 33cb 	ubfx	r3, r3, #15, #12
 8003150:	fb05 f303 	mul.w	r3, r5, r3
 8003154:	4680      	mov	r8, r0
 8003156:	9301      	str	r3, [sp, #4]
 8003158:	1c73      	adds	r3, r6, #1
 800315a:	6839      	ldr	r1, [r7, #0]
 800315c:	d107      	bne.n	800316e <SPI_WaitFlagStateUntilTimeout.constprop.0+0x42>
 800315e:	688b      	ldr	r3, [r1, #8]
 8003160:	ea34 0303 	bics.w	r3, r4, r3
 8003164:	d0fb      	beq.n	800315e <SPI_WaitFlagStateUntilTimeout.constprop.0+0x32>
 8003166:	2000      	movs	r0, #0
 8003168:	b002      	add	sp, #8
 800316a:	e8bd 81f0 	ldmia.w	sp!, {r4, r5, r6, r7, r8, pc}
 800316e:	688b      	ldr	r3, [r1, #8]
 8003170:	ea34 0303 	bics.w	r3, r4, r3
 8003174:	d1f7      	bne.n	8003166 <SPI_WaitFlagStateUntilTimeout.constprop.0+0x3a>
 8003176:	f7ff f9c9 	bl	800250c <HAL_GetTick>
 800317a:	eba0 0308 	sub.w	r3, r0, r8
 800317e:	42ab      	cmp	r3, r5
 8003180:	d208      	bcs.n	8003194 <SPI_WaitFlagStateUntilTimeout.constprop.0+0x68>
 8003182:	9a01      	ldr	r2, [sp, #4]
 8003184:	9b01      	ldr	r3, [sp, #4]
 8003186:	2a00      	cmp	r2, #0
 8003188:	f103 33ff 	add.w	r3, r3, #4294967295
 800318c:	bf08      	it	eq
 800318e:	2500      	moveq	r5, #0
 8003190:	9301      	str	r3, [sp, #4]
 8003192:	e7e1      	b.n	8003158 <SPI_WaitFlagStateUntilTimeout.constprop.0+0x2c>
 8003194:	e9d7 3100 	ldrd	r3, r1, [r7]
 8003198:	685a      	ldr	r2, [r3, #4]
 800319a:	f5b1 7f82 	cmp.w	r1, #260	; 0x104
 800319e:	f022 02e0 	bic.w	r2, r2, #224	; 0xe0
 80031a2:	605a      	str	r2, [r3, #4]
 80031a4:	d014      	beq.n	80031d0 <SPI_WaitFlagStateUntilTimeout.constprop.0+0xa4>
 80031a6:	6aba      	ldr	r2, [r7, #40]	; 0x28
 80031a8:	f5b2 5f00 	cmp.w	r2, #8192	; 0x2000
 80031ac:	d007      	beq.n	80031be <SPI_WaitFlagStateUntilTimeout.constprop.0+0x92>
 80031ae:	2201      	movs	r2, #1
 80031b0:	2300      	movs	r3, #0
 80031b2:	f887 2051 	strb.w	r2, [r7, #81]	; 0x51
 80031b6:	f887 3050 	strb.w	r3, [r7, #80]	; 0x50
 80031ba:	2003      	movs	r0, #3
 80031bc:	e7d4      	b.n	8003168 <SPI_WaitFlagStateUntilTimeout.constprop.0+0x3c>
 80031be:	681a      	ldr	r2, [r3, #0]
 80031c0:	f422 5200 	bic.w	r2, r2, #8192	; 0x2000
 80031c4:	601a      	str	r2, [r3, #0]
 80031c6:	681a      	ldr	r2, [r3, #0]
 80031c8:	f442 5200 	orr.w	r2, r2, #8192	; 0x2000
 80031cc:	601a      	str	r2, [r3, #0]
 80031ce:	e7ee      	b.n	80031ae <SPI_WaitFlagStateUntilTimeout.constprop.0+0x82>
 80031d0:	68ba      	ldr	r2, [r7, #8]
 80031d2:	f5b2 4f00 	cmp.w	r2, #32768	; 0x8000
 80031d6:	d002      	beq.n	80031de <SPI_WaitFlagStateUntilTimeout.constprop.0+0xb2>
 80031d8:	f5b2 6f80 	cmp.w	r2, #1024	; 0x400
 80031dc:	d1e3      	bne.n	80031a6 <SPI_WaitFlagStateUntilTimeout.constprop.0+0x7a>
 80031de:	681a      	ldr	r2, [r3, #0]
 80031e0:	f022 0240 	bic.w	r2, r2, #64	; 0x40
 80031e4:	601a      	str	r2, [r3, #0]
 80031e6:	e7de      	b.n	80031a6 <SPI_WaitFlagStateUntilTimeout.constprop.0+0x7a>
 80031e8:	20000000 	.word	0x20000000

080031ec <HAL_SPI_Init>:
 80031ec:	2800      	cmp	r0, #0
 80031ee:	d05b      	beq.n	80032a8 <HAL_SPI_Init+0xbc>
 80031f0:	b5f8      	push	{r3, r4, r5, r6, r7, lr}
 80031f2:	6a47      	ldr	r7, [r0, #36]	; 0x24
 80031f4:	4604      	mov	r4, r0
 80031f6:	2f00      	cmp	r7, #0
 80031f8:	d046      	beq.n	8003288 <HAL_SPI_Init+0x9c>
 80031fa:	2300      	movs	r3, #0
 80031fc:	e9c0 3304 	strd	r3, r3, [r0, #16]
 8003200:	f894 2051 	ldrb.w	r2, [r4, #81]	; 0x51
 8003204:	2000      	movs	r0, #0
 8003206:	f002 01ff 	and.w	r1, r2, #255	; 0xff
 800320a:	62a0      	str	r0, [r4, #40]	; 0x28
 800320c:	2a00      	cmp	r2, #0
 800320e:	d041      	beq.n	8003294 <HAL_SPI_Init+0xa8>
 8003210:	e9d4 3501 	ldrd	r3, r5, [r4, #4]
 8003214:	68e1      	ldr	r1, [r4, #12]
 8003216:	69a6      	ldr	r6, [r4, #24]
 8003218:	f403 7282 	and.w	r2, r3, #260	; 0x104
 800321c:	f405 4504 	and.w	r5, r5, #33792	; 0x8400
 8003220:	6923      	ldr	r3, [r4, #16]
 8003222:	432a      	orrs	r2, r5
 8003224:	f401 6100 	and.w	r1, r1, #2048	; 0x800
 8003228:	430a      	orrs	r2, r1
 800322a:	f003 0102 	and.w	r1, r3, #2
 800322e:	6963      	ldr	r3, [r4, #20]
 8003230:	430a      	orrs	r2, r1
 8003232:	f003 0301 	and.w	r3, r3, #1
 8003236:	431a      	orrs	r2, r3
 8003238:	69e3      	ldr	r3, [r4, #28]
 800323a:	6821      	ldr	r1, [r4, #0]
 800323c:	f003 0e38 	and.w	lr, r3, #56	; 0x38
 8003240:	f406 7300 	and.w	r3, r6, #512	; 0x200
 8003244:	4313      	orrs	r3, r2
 8003246:	2202      	movs	r2, #2
 8003248:	f884 2051 	strb.w	r2, [r4, #81]	; 0x51
 800324c:	6a22      	ldr	r2, [r4, #32]
 800324e:	0c35      	lsrs	r5, r6, #16
 8003250:	ea43 030e 	orr.w	r3, r3, lr
 8003254:	f002 0680 	and.w	r6, r2, #128	; 0x80
 8003258:	f005 0204 	and.w	r2, r5, #4
 800325c:	680d      	ldr	r5, [r1, #0]
 800325e:	f007 0710 	and.w	r7, r7, #16
 8003262:	4333      	orrs	r3, r6
 8003264:	433a      	orrs	r2, r7
 8003266:	4303      	orrs	r3, r0
 8003268:	f025 0540 	bic.w	r5, r5, #64	; 0x40
 800326c:	600d      	str	r5, [r1, #0]
 800326e:	600b      	str	r3, [r1, #0]
 8003270:	604a      	str	r2, [r1, #4]
 8003272:	69cb      	ldr	r3, [r1, #28]
 8003274:	2200      	movs	r2, #0
 8003276:	f423 6300 	bic.w	r3, r3, #2048	; 0x800
 800327a:	2501      	movs	r5, #1
 800327c:	61cb      	str	r3, [r1, #28]
 800327e:	6562      	str	r2, [r4, #84]	; 0x54
 8003280:	f884 5051 	strb.w	r5, [r4, #81]	; 0x51
 8003284:	4610      	mov	r0, r2
 8003286:	bdf8      	pop	{r3, r4, r5, r6, r7, pc}
 8003288:	6843      	ldr	r3, [r0, #4]
 800328a:	f5b3 7f82 	cmp.w	r3, #260	; 0x104
 800328e:	d0b7      	beq.n	8003200 <HAL_SPI_Init+0x14>
 8003290:	61c7      	str	r7, [r0, #28]
 8003292:	e7b5      	b.n	8003200 <HAL_SPI_Init+0x14>
 8003294:	4620      	mov	r0, r4
 8003296:	f884 1050 	strb.w	r1, [r4, #80]	; 0x50
 800329a:	f7fd fa4d 	bl	8000738 <HAL_SPI_MspInit>
 800329e:	e9d4 7309 	ldrd	r7, r3, [r4, #36]	; 0x24
 80032a2:	f403 5000 	and.w	r0, r3, #8192	; 0x2000
 80032a6:	e7b3      	b.n	8003210 <HAL_SPI_Init+0x24>
 80032a8:	2001      	movs	r0, #1
 80032aa:	4770      	bx	lr

080032ac <HAL_SPI_Transmit>:
 80032ac:	e92d 41f0 	stmdb	sp!, {r4, r5, r6, r7, r8, lr}
 80032b0:	4604      	mov	r4, r0
 80032b2:	f890 0050 	ldrb.w	r0, [r0, #80]	; 0x50
 80032b6:	2801      	cmp	r0, #1
 80032b8:	b082      	sub	sp, #8
 80032ba:	f000 8086 	beq.w	80033ca <HAL_SPI_Transmit+0x11e>
 80032be:	461d      	mov	r5, r3
 80032c0:	2301      	movs	r3, #1
 80032c2:	f884 3050 	strb.w	r3, [r4, #80]	; 0x50
 80032c6:	4688      	mov	r8, r1
 80032c8:	4617      	mov	r7, r2
 80032ca:	f7ff f91f 	bl	800250c <HAL_GetTick>
 80032ce:	f894 3051 	ldrb.w	r3, [r4, #81]	; 0x51
 80032d2:	2b01      	cmp	r3, #1
 80032d4:	4606      	mov	r6, r0
 80032d6:	b2d8      	uxtb	r0, r3
 80032d8:	d009      	beq.n	80032ee <HAL_SPI_Transmit+0x42>
 80032da:	2002      	movs	r0, #2
 80032dc:	2201      	movs	r2, #1
 80032de:	2300      	movs	r3, #0
 80032e0:	f884 2051 	strb.w	r2, [r4, #81]	; 0x51
 80032e4:	f884 3050 	strb.w	r3, [r4, #80]	; 0x50
 80032e8:	b002      	add	sp, #8
 80032ea:	e8bd 81f0 	ldmia.w	sp!, {r4, r5, r6, r7, r8, pc}
 80032ee:	f1b8 0f00 	cmp.w	r8, #0
 80032f2:	d0f3      	beq.n	80032dc <HAL_SPI_Transmit+0x30>
 80032f4:	2f00      	cmp	r7, #0
 80032f6:	d0f1      	beq.n	80032dc <HAL_SPI_Transmit+0x30>
 80032f8:	68a2      	ldr	r2, [r4, #8]
 80032fa:	6820      	ldr	r0, [r4, #0]
 80032fc:	f8c4 8030 	str.w	r8, [r4, #48]	; 0x30
 8003300:	2303      	movs	r3, #3
 8003302:	f884 3051 	strb.w	r3, [r4, #81]	; 0x51
 8003306:	f5b2 4f00 	cmp.w	r2, #32768	; 0x8000
 800330a:	f04f 0300 	mov.w	r3, #0
 800330e:	6563      	str	r3, [r4, #84]	; 0x54
 8003310:	e9c4 3310 	strd	r3, r3, [r4, #64]	; 0x40
 8003314:	86e7      	strh	r7, [r4, #54]	; 0x36
 8003316:	86a7      	strh	r7, [r4, #52]	; 0x34
 8003318:	63a3      	str	r3, [r4, #56]	; 0x38
 800331a:	87a3      	strh	r3, [r4, #60]	; 0x3c
 800331c:	87e3      	strh	r3, [r4, #62]	; 0x3e
 800331e:	f000 8085 	beq.w	800342c <HAL_SPI_Transmit+0x180>
 8003322:	6802      	ldr	r2, [r0, #0]
 8003324:	0652      	lsls	r2, r2, #25
 8003326:	4603      	mov	r3, r0
 8003328:	d403      	bmi.n	8003332 <HAL_SPI_Transmit+0x86>
 800332a:	6802      	ldr	r2, [r0, #0]
 800332c:	f042 0240 	orr.w	r2, r2, #64	; 0x40
 8003330:	6002      	str	r2, [r0, #0]
 8003332:	68e2      	ldr	r2, [r4, #12]
 8003334:	f5b2 6f00 	cmp.w	r2, #2048	; 0x800
 8003338:	d04b      	beq.n	80033d2 <HAL_SPI_Transmit+0x126>
 800333a:	6863      	ldr	r3, [r4, #4]
 800333c:	2b00      	cmp	r3, #0
 800333e:	f000 8097 	beq.w	8003470 <HAL_SPI_Transmit+0x1c4>
 8003342:	2f01      	cmp	r7, #1
 8003344:	f000 8094 	beq.w	8003470 <HAL_SPI_Transmit+0x1c4>
 8003348:	8ee3      	ldrh	r3, [r4, #54]	; 0x36
 800334a:	b29b      	uxth	r3, r3
 800334c:	b1ab      	cbz	r3, 800337a <HAL_SPI_Transmit+0xce>
 800334e:	1c68      	adds	r0, r5, #1
 8003350:	f040 8083 	bne.w	800345a <HAL_SPI_Transmit+0x1ae>
 8003354:	6823      	ldr	r3, [r4, #0]
 8003356:	689a      	ldr	r2, [r3, #8]
 8003358:	0791      	lsls	r1, r2, #30
 800335a:	f140 8094 	bpl.w	8003486 <HAL_SPI_Transmit+0x1da>
 800335e:	6b22      	ldr	r2, [r4, #48]	; 0x30
 8003360:	7812      	ldrb	r2, [r2, #0]
 8003362:	731a      	strb	r2, [r3, #12]
 8003364:	8ee2      	ldrh	r2, [r4, #54]	; 0x36
 8003366:	6b23      	ldr	r3, [r4, #48]	; 0x30
 8003368:	3a01      	subs	r2, #1
 800336a:	b292      	uxth	r2, r2
 800336c:	86e2      	strh	r2, [r4, #54]	; 0x36
 800336e:	8ee2      	ldrh	r2, [r4, #54]	; 0x36
 8003370:	3301      	adds	r3, #1
 8003372:	b292      	uxth	r2, r2
 8003374:	6323      	str	r3, [r4, #48]	; 0x30
 8003376:	2a00      	cmp	r2, #0
 8003378:	d1ec      	bne.n	8003354 <HAL_SPI_Transmit+0xa8>
 800337a:	6861      	ldr	r1, [r4, #4]
 800337c:	4b5b      	ldr	r3, [pc, #364]	; (80034ec <HAL_SPI_Transmit+0x240>)
 800337e:	4a5c      	ldr	r2, [pc, #368]	; (80034f0 <HAL_SPI_Transmit+0x244>)
 8003380:	681b      	ldr	r3, [r3, #0]
 8003382:	fba2 2303 	umull	r2, r3, r2, r3
 8003386:	0d5b      	lsrs	r3, r3, #21
 8003388:	f44f 727a 	mov.w	r2, #1000	; 0x3e8
 800338c:	fb02 f303 	mul.w	r3, r2, r3
 8003390:	f5b1 7f82 	cmp.w	r1, #260	; 0x104
 8003394:	9301      	str	r3, [sp, #4]
 8003396:	d107      	bne.n	80033a8 <HAL_SPI_Transmit+0xfc>
 8003398:	e098      	b.n	80034cc <HAL_SPI_Transmit+0x220>
 800339a:	9b01      	ldr	r3, [sp, #4]
 800339c:	6822      	ldr	r2, [r4, #0]
 800339e:	3b01      	subs	r3, #1
 80033a0:	9301      	str	r3, [sp, #4]
 80033a2:	6893      	ldr	r3, [r2, #8]
 80033a4:	061b      	lsls	r3, r3, #24
 80033a6:	d502      	bpl.n	80033ae <HAL_SPI_Transmit+0x102>
 80033a8:	9b01      	ldr	r3, [sp, #4]
 80033aa:	2b00      	cmp	r3, #0
 80033ac:	d1f5      	bne.n	800339a <HAL_SPI_Transmit+0xee>
 80033ae:	68a3      	ldr	r3, [r4, #8]
 80033b0:	b933      	cbnz	r3, 80033c0 <HAL_SPI_Transmit+0x114>
 80033b2:	6822      	ldr	r2, [r4, #0]
 80033b4:	9300      	str	r3, [sp, #0]
 80033b6:	68d3      	ldr	r3, [r2, #12]
 80033b8:	9300      	str	r3, [sp, #0]
 80033ba:	6893      	ldr	r3, [r2, #8]
 80033bc:	9300      	str	r3, [sp, #0]
 80033be:	9b00      	ldr	r3, [sp, #0]
 80033c0:	6d60      	ldr	r0, [r4, #84]	; 0x54
 80033c2:	3800      	subs	r0, #0
 80033c4:	bf18      	it	ne
 80033c6:	2001      	movne	r0, #1
 80033c8:	e788      	b.n	80032dc <HAL_SPI_Transmit+0x30>
 80033ca:	2002      	movs	r0, #2
 80033cc:	b002      	add	sp, #8
 80033ce:	e8bd 81f0 	ldmia.w	sp!, {r4, r5, r6, r7, r8, pc}
 80033d2:	6861      	ldr	r1, [r4, #4]
 80033d4:	2900      	cmp	r1, #0
 80033d6:	d176      	bne.n	80034c6 <HAL_SPI_Transmit+0x21a>
 80033d8:	4647      	mov	r7, r8
 80033da:	f837 2b02 	ldrh.w	r2, [r7], #2
 80033de:	60c2      	str	r2, [r0, #12]
 80033e0:	8ee2      	ldrh	r2, [r4, #54]	; 0x36
 80033e2:	6327      	str	r7, [r4, #48]	; 0x30
 80033e4:	3a01      	subs	r2, #1
 80033e6:	b292      	uxth	r2, r2
 80033e8:	86e2      	strh	r2, [r4, #54]	; 0x36
 80033ea:	8ee2      	ldrh	r2, [r4, #54]	; 0x36
 80033ec:	b292      	uxth	r2, r2
 80033ee:	2a00      	cmp	r2, #0
 80033f0:	d0c4      	beq.n	800337c <HAL_SPI_Transmit+0xd0>
 80033f2:	1c6a      	adds	r2, r5, #1
 80033f4:	d15e      	bne.n	80034b4 <HAL_SPI_Transmit+0x208>
 80033f6:	6883      	ldr	r3, [r0, #8]
 80033f8:	079f      	lsls	r7, r3, #30
 80033fa:	d50f      	bpl.n	800341c <HAL_SPI_Transmit+0x170>
 80033fc:	6b22      	ldr	r2, [r4, #48]	; 0x30
 80033fe:	f832 3b02 	ldrh.w	r3, [r2], #2
 8003402:	60c3      	str	r3, [r0, #12]
 8003404:	8ee3      	ldrh	r3, [r4, #54]	; 0x36
 8003406:	6322      	str	r2, [r4, #48]	; 0x30
 8003408:	3b01      	subs	r3, #1
 800340a:	b29b      	uxth	r3, r3
 800340c:	86e3      	strh	r3, [r4, #54]	; 0x36
 800340e:	8ee3      	ldrh	r3, [r4, #54]	; 0x36
 8003410:	b29b      	uxth	r3, r3
 8003412:	2b00      	cmp	r3, #0
 8003414:	d0b1      	beq.n	800337a <HAL_SPI_Transmit+0xce>
 8003416:	6883      	ldr	r3, [r0, #8]
 8003418:	079f      	lsls	r7, r3, #30
 800341a:	d4ef      	bmi.n	80033fc <HAL_SPI_Transmit+0x150>
 800341c:	f7ff f876 	bl	800250c <HAL_GetTick>
 8003420:	8ee3      	ldrh	r3, [r4, #54]	; 0x36
 8003422:	b29b      	uxth	r3, r3
 8003424:	2b00      	cmp	r3, #0
 8003426:	d0a8      	beq.n	800337a <HAL_SPI_Transmit+0xce>
 8003428:	6820      	ldr	r0, [r4, #0]
 800342a:	e7e4      	b.n	80033f6 <HAL_SPI_Transmit+0x14a>
 800342c:	6803      	ldr	r3, [r0, #0]
 800342e:	f023 0340 	bic.w	r3, r3, #64	; 0x40
 8003432:	6003      	str	r3, [r0, #0]
 8003434:	6803      	ldr	r3, [r0, #0]
 8003436:	f443 4380 	orr.w	r3, r3, #16384	; 0x4000
 800343a:	6003      	str	r3, [r0, #0]
 800343c:	e771      	b.n	8003322 <HAL_SPI_Transmit+0x76>
 800343e:	6b22      	ldr	r2, [r4, #48]	; 0x30
 8003440:	7812      	ldrb	r2, [r2, #0]
 8003442:	731a      	strb	r2, [r3, #12]
 8003444:	8ee3      	ldrh	r3, [r4, #54]	; 0x36
 8003446:	6b22      	ldr	r2, [r4, #48]	; 0x30
 8003448:	3b01      	subs	r3, #1
 800344a:	b29b      	uxth	r3, r3
 800344c:	3201      	adds	r2, #1
 800344e:	86e3      	strh	r3, [r4, #54]	; 0x36
 8003450:	6322      	str	r2, [r4, #48]	; 0x30
 8003452:	8ee3      	ldrh	r3, [r4, #54]	; 0x36
 8003454:	b29b      	uxth	r3, r3
 8003456:	2b00      	cmp	r3, #0
 8003458:	d08f      	beq.n	800337a <HAL_SPI_Transmit+0xce>
 800345a:	6823      	ldr	r3, [r4, #0]
 800345c:	689a      	ldr	r2, [r3, #8]
 800345e:	0792      	lsls	r2, r2, #30
 8003460:	d4ed      	bmi.n	800343e <HAL_SPI_Transmit+0x192>
 8003462:	f7ff f853 	bl	800250c <HAL_GetTick>
 8003466:	1b80      	subs	r0, r0, r6
 8003468:	42a8      	cmp	r0, r5
 800346a:	d3f2      	bcc.n	8003452 <HAL_SPI_Transmit+0x1a6>
 800346c:	2003      	movs	r0, #3
 800346e:	e735      	b.n	80032dc <HAL_SPI_Transmit+0x30>
 8003470:	f898 3000 	ldrb.w	r3, [r8]
 8003474:	7303      	strb	r3, [r0, #12]
 8003476:	8ee3      	ldrh	r3, [r4, #54]	; 0x36
 8003478:	6b22      	ldr	r2, [r4, #48]	; 0x30
 800347a:	3b01      	subs	r3, #1
 800347c:	b29b      	uxth	r3, r3
 800347e:	3201      	adds	r2, #1
 8003480:	86e3      	strh	r3, [r4, #54]	; 0x36
 8003482:	6322      	str	r2, [r4, #48]	; 0x30
 8003484:	e760      	b.n	8003348 <HAL_SPI_Transmit+0x9c>
 8003486:	f7ff f841 	bl	800250c <HAL_GetTick>
 800348a:	8ee3      	ldrh	r3, [r4, #54]	; 0x36
 800348c:	b29b      	uxth	r3, r3
 800348e:	2b00      	cmp	r3, #0
 8003490:	f47f af60 	bne.w	8003354 <HAL_SPI_Transmit+0xa8>
 8003494:	e771      	b.n	800337a <HAL_SPI_Transmit+0xce>
 8003496:	6b22      	ldr	r2, [r4, #48]	; 0x30
 8003498:	f832 1b02 	ldrh.w	r1, [r2], #2
 800349c:	60d9      	str	r1, [r3, #12]
 800349e:	8ee3      	ldrh	r3, [r4, #54]	; 0x36
 80034a0:	6322      	str	r2, [r4, #48]	; 0x30
 80034a2:	3b01      	subs	r3, #1
 80034a4:	b29b      	uxth	r3, r3
 80034a6:	86e3      	strh	r3, [r4, #54]	; 0x36
 80034a8:	8ee3      	ldrh	r3, [r4, #54]	; 0x36
 80034aa:	b29b      	uxth	r3, r3
 80034ac:	2b00      	cmp	r3, #0
 80034ae:	f43f af64 	beq.w	800337a <HAL_SPI_Transmit+0xce>
 80034b2:	6823      	ldr	r3, [r4, #0]
 80034b4:	689a      	ldr	r2, [r3, #8]
 80034b6:	0791      	lsls	r1, r2, #30
 80034b8:	d4ed      	bmi.n	8003496 <HAL_SPI_Transmit+0x1ea>
 80034ba:	f7ff f827 	bl	800250c <HAL_GetTick>
 80034be:	1b80      	subs	r0, r0, r6
 80034c0:	42a8      	cmp	r0, r5
 80034c2:	d3f1      	bcc.n	80034a8 <HAL_SPI_Transmit+0x1fc>
 80034c4:	e7d2      	b.n	800346c <HAL_SPI_Transmit+0x1c0>
 80034c6:	2f01      	cmp	r7, #1
 80034c8:	d18f      	bne.n	80033ea <HAL_SPI_Transmit+0x13e>
 80034ca:	e785      	b.n	80033d8 <HAL_SPI_Transmit+0x12c>
 80034cc:	4633      	mov	r3, r6
 80034ce:	462a      	mov	r2, r5
 80034d0:	2180      	movs	r1, #128	; 0x80
 80034d2:	4620      	mov	r0, r4
 80034d4:	f7ff fe2a 	bl	800312c <SPI_WaitFlagStateUntilTimeout.constprop.0>
 80034d8:	2800      	cmp	r0, #0
 80034da:	f43f af68 	beq.w	80033ae <HAL_SPI_Transmit+0x102>
 80034de:	6d63      	ldr	r3, [r4, #84]	; 0x54
 80034e0:	2220      	movs	r2, #32
 80034e2:	4313      	orrs	r3, r2
 80034e4:	6563      	str	r3, [r4, #84]	; 0x54
 80034e6:	6562      	str	r2, [r4, #84]	; 0x54
 80034e8:	e761      	b.n	80033ae <HAL_SPI_Transmit+0x102>
 80034ea:	bf00      	nop
 80034ec:	20000000 	.word	0x20000000
 80034f0:	165e9f81 	.word	0x165e9f81

080034f4 <HAL_SPI_Transmit_DMA>:
 80034f4:	b570      	push	{r4, r5, r6, lr}
 80034f6:	f890 3050 	ldrb.w	r3, [r0, #80]	; 0x50
 80034fa:	2b01      	cmp	r3, #1
 80034fc:	d057      	beq.n	80035ae <HAL_SPI_Transmit_DMA+0xba>
 80034fe:	f890 3051 	ldrb.w	r3, [r0, #81]	; 0x51
 8003502:	4604      	mov	r4, r0
 8003504:	2001      	movs	r0, #1
 8003506:	4283      	cmp	r3, r0
 8003508:	b2dd      	uxtb	r5, r3
 800350a:	f884 0050 	strb.w	r0, [r4, #80]	; 0x50
 800350e:	d005      	beq.n	800351c <HAL_SPI_Transmit_DMA+0x28>
 8003510:	2502      	movs	r5, #2
 8003512:	2300      	movs	r3, #0
 8003514:	f884 3050 	strb.w	r3, [r4, #80]	; 0x50
 8003518:	4628      	mov	r0, r5
 800351a:	bd70      	pop	{r4, r5, r6, pc}
 800351c:	2900      	cmp	r1, #0
 800351e:	d0f8      	beq.n	8003512 <HAL_SPI_Transmit_DMA+0x1e>
 8003520:	2a00      	cmp	r2, #0
 8003522:	d0f6      	beq.n	8003512 <HAL_SPI_Transmit_DMA+0x1e>
 8003524:	68a0      	ldr	r0, [r4, #8]
 8003526:	86a2      	strh	r2, [r4, #52]	; 0x34
 8003528:	2303      	movs	r3, #3
 800352a:	f884 3051 	strb.w	r3, [r4, #81]	; 0x51
 800352e:	f5b0 4f00 	cmp.w	r0, #32768	; 0x8000
 8003532:	f04f 0300 	mov.w	r3, #0
 8003536:	6563      	str	r3, [r4, #84]	; 0x54
 8003538:	e9c4 3310 	strd	r3, r3, [r4, #64]	; 0x40
 800353c:	86e2      	strh	r2, [r4, #54]	; 0x36
 800353e:	6321      	str	r1, [r4, #48]	; 0x30
 8003540:	6822      	ldr	r2, [r4, #0]
 8003542:	63a3      	str	r3, [r4, #56]	; 0x38
 8003544:	87a3      	strh	r3, [r4, #60]	; 0x3c
 8003546:	87e3      	strh	r3, [r4, #62]	; 0x3e
 8003548:	d028      	beq.n	800359c <HAL_SPI_Transmit_DMA+0xa8>
 800354a:	6ca0      	ldr	r0, [r4, #72]	; 0x48
 800354c:	4e19      	ldr	r6, [pc, #100]	; (80035b4 <HAL_SPI_Transmit_DMA+0xc0>)
 800354e:	8ee3      	ldrh	r3, [r4, #54]	; 0x36
 8003550:	6406      	str	r6, [r0, #64]	; 0x40
 8003552:	4e19      	ldr	r6, [pc, #100]	; (80035b8 <HAL_SPI_Transmit_DMA+0xc4>)
 8003554:	63c6      	str	r6, [r0, #60]	; 0x3c
 8003556:	4e19      	ldr	r6, [pc, #100]	; (80035bc <HAL_SPI_Transmit_DMA+0xc8>)
 8003558:	64c6      	str	r6, [r0, #76]	; 0x4c
 800355a:	2600      	movs	r6, #0
 800355c:	320c      	adds	r2, #12
 800355e:	6506      	str	r6, [r0, #80]	; 0x50
 8003560:	b29b      	uxth	r3, r3
 8003562:	f7ff f8f9 	bl	8002758 <HAL_DMA_Start_IT>
 8003566:	b988      	cbnz	r0, 800358c <HAL_SPI_Transmit_DMA+0x98>
 8003568:	6823      	ldr	r3, [r4, #0]
 800356a:	681a      	ldr	r2, [r3, #0]
 800356c:	0652      	lsls	r2, r2, #25
 800356e:	d403      	bmi.n	8003578 <HAL_SPI_Transmit_DMA+0x84>
 8003570:	681a      	ldr	r2, [r3, #0]
 8003572:	f042 0240 	orr.w	r2, r2, #64	; 0x40
 8003576:	601a      	str	r2, [r3, #0]
 8003578:	685a      	ldr	r2, [r3, #4]
 800357a:	f042 0220 	orr.w	r2, r2, #32
 800357e:	605a      	str	r2, [r3, #4]
 8003580:	685a      	ldr	r2, [r3, #4]
 8003582:	f042 0202 	orr.w	r2, r2, #2
 8003586:	605a      	str	r2, [r3, #4]
 8003588:	2500      	movs	r5, #0
 800358a:	e7c2      	b.n	8003512 <HAL_SPI_Transmit_DMA+0x1e>
 800358c:	6d63      	ldr	r3, [r4, #84]	; 0x54
 800358e:	2201      	movs	r2, #1
 8003590:	f043 0310 	orr.w	r3, r3, #16
 8003594:	6563      	str	r3, [r4, #84]	; 0x54
 8003596:	f884 2051 	strb.w	r2, [r4, #81]	; 0x51
 800359a:	e7ba      	b.n	8003512 <HAL_SPI_Transmit_DMA+0x1e>
 800359c:	6813      	ldr	r3, [r2, #0]
 800359e:	f023 0340 	bic.w	r3, r3, #64	; 0x40
 80035a2:	6013      	str	r3, [r2, #0]
 80035a4:	6813      	ldr	r3, [r2, #0]
 80035a6:	f443 4380 	orr.w	r3, r3, #16384	; 0x4000
 80035aa:	6013      	str	r3, [r2, #0]
 80035ac:	e7cd      	b.n	800354a <HAL_SPI_Transmit_DMA+0x56>
 80035ae:	2502      	movs	r5, #2
 80035b0:	4628      	mov	r0, r5
 80035b2:	bd70      	pop	{r4, r5, r6, pc}
 80035b4:	080035c9 	.word	0x080035c9
 80035b8:	080035fd 	.word	0x080035fd
 80035bc:	080035d9 	.word	0x080035d9

080035c0 <HAL_SPI_TxCpltCallback>:
 80035c0:	4770      	bx	lr
 80035c2:	bf00      	nop

080035c4 <HAL_SPI_TxHalfCpltCallback>:
 80035c4:	4770      	bx	lr
 80035c6:	bf00      	nop

080035c8 <SPI_DMAHalfTransmitCplt>:
 80035c8:	b508      	push	{r3, lr}
 80035ca:	6b80      	ldr	r0, [r0, #56]	; 0x38
 80035cc:	f7ff fffa 	bl	80035c4 <HAL_SPI_TxHalfCpltCallback>
 80035d0:	bd08      	pop	{r3, pc}
 80035d2:	bf00      	nop

080035d4 <HAL_SPI_ErrorCallback>:
 80035d4:	4770      	bx	lr
 80035d6:	bf00      	nop

080035d8 <SPI_DMAError>:
 80035d8:	6b80      	ldr	r0, [r0, #56]	; 0x38
 80035da:	6802      	ldr	r2, [r0, #0]
 80035dc:	b508      	push	{r3, lr}
 80035de:	6853      	ldr	r3, [r2, #4]
 80035e0:	f023 0303 	bic.w	r3, r3, #3
 80035e4:	6053      	str	r3, [r2, #4]
 80035e6:	6d43      	ldr	r3, [r0, #84]	; 0x54
 80035e8:	2101      	movs	r1, #1
 80035ea:	f043 0310 	orr.w	r3, r3, #16
 80035ee:	6543      	str	r3, [r0, #84]	; 0x54
 80035f0:	f880 1051 	strb.w	r1, [r0, #81]	; 0x51
 80035f4:	f7ff ffee 	bl	80035d4 <HAL_SPI_ErrorCallback>
 80035f8:	bd08      	pop	{r3, pc}
 80035fa:	bf00      	nop

080035fc <SPI_DMATransmitCplt>:
 80035fc:	b570      	push	{r4, r5, r6, lr}
 80035fe:	4605      	mov	r5, r0
 8003600:	b082      	sub	sp, #8
 8003602:	6b84      	ldr	r4, [r0, #56]	; 0x38
 8003604:	f7fe ff82 	bl	800250c <HAL_GetTick>
 8003608:	682b      	ldr	r3, [r5, #0]
 800360a:	681a      	ldr	r2, [r3, #0]
 800360c:	05d2      	lsls	r2, r2, #23
 800360e:	d42e      	bmi.n	800366e <SPI_DMATransmitCplt+0x72>
 8003610:	6822      	ldr	r2, [r4, #0]
 8003612:	4b25      	ldr	r3, [pc, #148]	; (80036a8 <SPI_DMATransmitCplt+0xac>)
 8003614:	6855      	ldr	r5, [r2, #4]
 8003616:	6819      	ldr	r1, [r3, #0]
 8003618:	4b24      	ldr	r3, [pc, #144]	; (80036ac <SPI_DMATransmitCplt+0xb0>)
 800361a:	f025 0520 	bic.w	r5, r5, #32
 800361e:	6055      	str	r5, [r2, #4]
 8003620:	6856      	ldr	r6, [r2, #4]
 8003622:	fba3 3101 	umull	r3, r1, r3, r1
 8003626:	6863      	ldr	r3, [r4, #4]
 8003628:	0d49      	lsrs	r1, r1, #21
 800362a:	f44f 757a 	mov.w	r5, #1000	; 0x3e8
 800362e:	f026 0602 	bic.w	r6, r6, #2
 8003632:	fb05 f101 	mul.w	r1, r5, r1
 8003636:	f5b3 7f82 	cmp.w	r3, #260	; 0x104
 800363a:	6056      	str	r6, [r2, #4]
 800363c:	9101      	str	r1, [sp, #4]
 800363e:	d121      	bne.n	8003684 <SPI_DMATransmitCplt+0x88>
 8003640:	4603      	mov	r3, r0
 8003642:	2264      	movs	r2, #100	; 0x64
 8003644:	2180      	movs	r1, #128	; 0x80
 8003646:	4620      	mov	r0, r4
 8003648:	f7ff fd70 	bl	800312c <SPI_WaitFlagStateUntilTimeout.constprop.0>
 800364c:	bb18      	cbnz	r0, 8003696 <SPI_DMATransmitCplt+0x9a>
 800364e:	68a3      	ldr	r3, [r4, #8]
 8003650:	b933      	cbnz	r3, 8003660 <SPI_DMATransmitCplt+0x64>
 8003652:	6822      	ldr	r2, [r4, #0]
 8003654:	9300      	str	r3, [sp, #0]
 8003656:	68d3      	ldr	r3, [r2, #12]
 8003658:	9300      	str	r3, [sp, #0]
 800365a:	6893      	ldr	r3, [r2, #8]
 800365c:	9300      	str	r3, [sp, #0]
 800365e:	9b00      	ldr	r3, [sp, #0]
 8003660:	2301      	movs	r3, #1
 8003662:	2200      	movs	r2, #0
 8003664:	86e2      	strh	r2, [r4, #54]	; 0x36
 8003666:	f884 3051 	strb.w	r3, [r4, #81]	; 0x51
 800366a:	6d63      	ldr	r3, [r4, #84]	; 0x54
 800366c:	b973      	cbnz	r3, 800368c <SPI_DMATransmitCplt+0x90>
 800366e:	4620      	mov	r0, r4
 8003670:	f7ff ffa6 	bl	80035c0 <HAL_SPI_TxCpltCallback>
 8003674:	b002      	add	sp, #8
 8003676:	bd70      	pop	{r4, r5, r6, pc}
 8003678:	9b01      	ldr	r3, [sp, #4]
 800367a:	3b01      	subs	r3, #1
 800367c:	9301      	str	r3, [sp, #4]
 800367e:	6893      	ldr	r3, [r2, #8]
 8003680:	061b      	lsls	r3, r3, #24
 8003682:	d5e4      	bpl.n	800364e <SPI_DMATransmitCplt+0x52>
 8003684:	9b01      	ldr	r3, [sp, #4]
 8003686:	2b00      	cmp	r3, #0
 8003688:	d1f6      	bne.n	8003678 <SPI_DMATransmitCplt+0x7c>
 800368a:	e7e0      	b.n	800364e <SPI_DMATransmitCplt+0x52>
 800368c:	4620      	mov	r0, r4
 800368e:	f7ff ffa1 	bl	80035d4 <HAL_SPI_ErrorCallback>
 8003692:	b002      	add	sp, #8
 8003694:	bd70      	pop	{r4, r5, r6, pc}
 8003696:	6d63      	ldr	r3, [r4, #84]	; 0x54
 8003698:	f043 0320 	orr.w	r3, r3, #32
 800369c:	6563      	str	r3, [r4, #84]	; 0x54
 800369e:	6d63      	ldr	r3, [r4, #84]	; 0x54
 80036a0:	f043 0320 	orr.w	r3, r3, #32
 80036a4:	6563      	str	r3, [r4, #84]	; 0x54
 80036a6:	e7d2      	b.n	800364e <SPI_DMATransmitCplt+0x52>
 80036a8:	20000000 	.word	0x20000000
 80036ac:	165e9f81 	.word	0x165e9f81

080036b0 <HAL_SPI_IRQHandler>:
 80036b0:	b530      	push	{r4, r5, lr}
 80036b2:	6802      	ldr	r2, [r0, #0]
 80036b4:	6851      	ldr	r1, [r2, #4]
 80036b6:	6893      	ldr	r3, [r2, #8]
 80036b8:	f013 0f40 	tst.w	r3, #64	; 0x40
 80036bc:	b085      	sub	sp, #20
 80036be:	4604      	mov	r4, r0
 80036c0:	f3c3 1580 	ubfx	r5, r3, #6, #1
 80036c4:	d105      	bne.n	80036d2 <HAL_SPI_IRQHandler+0x22>
 80036c6:	f013 0f01 	tst.w	r3, #1
 80036ca:	d002      	beq.n	80036d2 <HAL_SPI_IRQHandler+0x22>
 80036cc:	f011 0f40 	tst.w	r1, #64	; 0x40
 80036d0:	d17a      	bne.n	80037c8 <HAL_SPI_IRQHandler+0x118>
 80036d2:	0798      	lsls	r0, r3, #30
 80036d4:	d501      	bpl.n	80036da <HAL_SPI_IRQHandler+0x2a>
 80036d6:	0608      	lsls	r0, r1, #24
 80036d8:	d470      	bmi.n	80037bc <HAL_SPI_IRQHandler+0x10c>
 80036da:	f013 0f20 	tst.w	r3, #32
 80036de:	f3c3 1040 	ubfx	r0, r3, #5, #1
 80036e2:	d049      	beq.n	8003778 <HAL_SPI_IRQHandler+0xc8>
 80036e4:	0688      	lsls	r0, r1, #26
 80036e6:	d545      	bpl.n	8003774 <HAL_SPI_IRQHandler+0xc4>
 80036e8:	b175      	cbz	r5, 8003708 <HAL_SPI_IRQHandler+0x58>
 80036ea:	f894 0051 	ldrb.w	r0, [r4, #81]	; 0x51
 80036ee:	2803      	cmp	r0, #3
 80036f0:	d06c      	beq.n	80037cc <HAL_SPI_IRQHandler+0x11c>
 80036f2:	6d60      	ldr	r0, [r4, #84]	; 0x54
 80036f4:	2500      	movs	r5, #0
 80036f6:	f040 0004 	orr.w	r0, r0, #4
 80036fa:	6560      	str	r0, [r4, #84]	; 0x54
 80036fc:	9500      	str	r5, [sp, #0]
 80036fe:	68d0      	ldr	r0, [r2, #12]
 8003700:	9000      	str	r0, [sp, #0]
 8003702:	6890      	ldr	r0, [r2, #8]
 8003704:	9000      	str	r0, [sp, #0]
 8003706:	9800      	ldr	r0, [sp, #0]
 8003708:	6d60      	ldr	r0, [r4, #84]	; 0x54
 800370a:	2500      	movs	r5, #0
 800370c:	f040 0001 	orr.w	r0, r0, #1
 8003710:	6560      	str	r0, [r4, #84]	; 0x54
 8003712:	9502      	str	r5, [sp, #8]
 8003714:	6890      	ldr	r0, [r2, #8]
 8003716:	9002      	str	r0, [sp, #8]
 8003718:	6810      	ldr	r0, [r2, #0]
 800371a:	f020 0040 	bic.w	r0, r0, #64	; 0x40
 800371e:	6010      	str	r0, [r2, #0]
 8003720:	9802      	ldr	r0, [sp, #8]
 8003722:	f3c3 2300 	ubfx	r3, r3, #8, #1
 8003726:	2b00      	cmp	r3, #0
 8003728:	d13e      	bne.n	80037a8 <HAL_SPI_IRQHandler+0xf8>
 800372a:	6d63      	ldr	r3, [r4, #84]	; 0x54
 800372c:	b313      	cbz	r3, 8003774 <HAL_SPI_IRQHandler+0xc4>
 800372e:	6853      	ldr	r3, [r2, #4]
 8003730:	f023 03e0 	bic.w	r3, r3, #224	; 0xe0
 8003734:	6053      	str	r3, [r2, #4]
 8003736:	2001      	movs	r0, #1
 8003738:	078b      	lsls	r3, r1, #30
 800373a:	f884 0051 	strb.w	r0, [r4, #81]	; 0x51
 800373e:	d04d      	beq.n	80037dc <HAL_SPI_IRQHandler+0x12c>
 8003740:	6853      	ldr	r3, [r2, #4]
 8003742:	6ce0      	ldr	r0, [r4, #76]	; 0x4c
 8003744:	f023 0303 	bic.w	r3, r3, #3
 8003748:	6053      	str	r3, [r2, #4]
 800374a:	b140      	cbz	r0, 800375e <HAL_SPI_IRQHandler+0xae>
 800374c:	4b25      	ldr	r3, [pc, #148]	; (80037e4 <HAL_SPI_IRQHandler+0x134>)
 800374e:	6503      	str	r3, [r0, #80]	; 0x50
 8003750:	f7ff f840 	bl	80027d4 <HAL_DMA_Abort_IT>
 8003754:	b118      	cbz	r0, 800375e <HAL_SPI_IRQHandler+0xae>
 8003756:	6d63      	ldr	r3, [r4, #84]	; 0x54
 8003758:	f043 0340 	orr.w	r3, r3, #64	; 0x40
 800375c:	6563      	str	r3, [r4, #84]	; 0x54
 800375e:	6ca0      	ldr	r0, [r4, #72]	; 0x48
 8003760:	b140      	cbz	r0, 8003774 <HAL_SPI_IRQHandler+0xc4>
 8003762:	4b20      	ldr	r3, [pc, #128]	; (80037e4 <HAL_SPI_IRQHandler+0x134>)
 8003764:	6503      	str	r3, [r0, #80]	; 0x50
 8003766:	f7ff f835 	bl	80027d4 <HAL_DMA_Abort_IT>
 800376a:	b118      	cbz	r0, 8003774 <HAL_SPI_IRQHandler+0xc4>
 800376c:	6d63      	ldr	r3, [r4, #84]	; 0x54
 800376e:	f043 0340 	orr.w	r3, r3, #64	; 0x40
 8003772:	6563      	str	r3, [r4, #84]	; 0x54
 8003774:	b005      	add	sp, #20
 8003776:	bd30      	pop	{r4, r5, pc}
 8003778:	b195      	cbz	r5, 80037a0 <HAL_SPI_IRQHandler+0xf0>
 800377a:	068d      	lsls	r5, r1, #26
 800377c:	d5fa      	bpl.n	8003774 <HAL_SPI_IRQHandler+0xc4>
 800377e:	f894 5051 	ldrb.w	r5, [r4, #81]	; 0x51
 8003782:	2d03      	cmp	r5, #3
 8003784:	d022      	beq.n	80037cc <HAL_SPI_IRQHandler+0x11c>
 8003786:	6d65      	ldr	r5, [r4, #84]	; 0x54
 8003788:	f045 0504 	orr.w	r5, r5, #4
 800378c:	6565      	str	r5, [r4, #84]	; 0x54
 800378e:	9000      	str	r0, [sp, #0]
 8003790:	68d0      	ldr	r0, [r2, #12]
 8003792:	9000      	str	r0, [sp, #0]
 8003794:	6890      	ldr	r0, [r2, #8]
 8003796:	9000      	str	r0, [sp, #0]
 8003798:	9800      	ldr	r0, [sp, #0]
 800379a:	f3c3 2300 	ubfx	r3, r3, #8, #1
 800379e:	e7c2      	b.n	8003726 <HAL_SPI_IRQHandler+0x76>
 80037a0:	05dd      	lsls	r5, r3, #23
 80037a2:	d5e7      	bpl.n	8003774 <HAL_SPI_IRQHandler+0xc4>
 80037a4:	068b      	lsls	r3, r1, #26
 80037a6:	d5e5      	bpl.n	8003774 <HAL_SPI_IRQHandler+0xc4>
 80037a8:	6d63      	ldr	r3, [r4, #84]	; 0x54
 80037aa:	2000      	movs	r0, #0
 80037ac:	f043 0308 	orr.w	r3, r3, #8
 80037b0:	6563      	str	r3, [r4, #84]	; 0x54
 80037b2:	9003      	str	r0, [sp, #12]
 80037b4:	6893      	ldr	r3, [r2, #8]
 80037b6:	9303      	str	r3, [sp, #12]
 80037b8:	9b03      	ldr	r3, [sp, #12]
 80037ba:	e7b6      	b.n	800372a <HAL_SPI_IRQHandler+0x7a>
 80037bc:	6c63      	ldr	r3, [r4, #68]	; 0x44
 80037be:	4620      	mov	r0, r4
 80037c0:	b005      	add	sp, #20
 80037c2:	e8bd 4030 	ldmia.w	sp!, {r4, r5, lr}
 80037c6:	4718      	bx	r3
 80037c8:	6c03      	ldr	r3, [r0, #64]	; 0x40
 80037ca:	e7f9      	b.n	80037c0 <HAL_SPI_IRQHandler+0x110>
 80037cc:	2300      	movs	r3, #0
 80037ce:	9301      	str	r3, [sp, #4]
 80037d0:	68d3      	ldr	r3, [r2, #12]
 80037d2:	9301      	str	r3, [sp, #4]
 80037d4:	6893      	ldr	r3, [r2, #8]
 80037d6:	9301      	str	r3, [sp, #4]
 80037d8:	9b01      	ldr	r3, [sp, #4]
 80037da:	e7cb      	b.n	8003774 <HAL_SPI_IRQHandler+0xc4>
 80037dc:	4620      	mov	r0, r4
 80037de:	f7ff fef9 	bl	80035d4 <HAL_SPI_ErrorCallback>
 80037e2:	e7c7      	b.n	8003774 <HAL_SPI_IRQHandler+0xc4>
 80037e4:	080037e9 	.word	0x080037e9

080037e8 <SPI_DMAAbortOnError>:
 80037e8:	b508      	push	{r3, lr}
 80037ea:	6b80      	ldr	r0, [r0, #56]	; 0x38
 80037ec:	2300      	movs	r3, #0
 80037ee:	87c3      	strh	r3, [r0, #62]	; 0x3e
 80037f0:	86c3      	strh	r3, [r0, #54]	; 0x36
 80037f2:	f7ff feef 	bl	80035d4 <HAL_SPI_ErrorCallback>
 80037f6:	bd08      	pop	{r3, pc}

080037f8 <__errno>:
 80037f8:	4b01      	ldr	r3, [pc, #4]	; (8003800 <__errno+0x8>)
 80037fa:	6818      	ldr	r0, [r3, #0]
 80037fc:	4770      	bx	lr
 80037fe:	bf00      	nop
 8003800:	20000014 	.word	0x20000014

08003804 <__libc_init_array>:
 8003804:	b570      	push	{r4, r5, r6, lr}
 8003806:	4d0d      	ldr	r5, [pc, #52]	; (800383c <__libc_init_array+0x38>)
 8003808:	4c0d      	ldr	r4, [pc, #52]	; (8003840 <__libc_init_array+0x3c>)
 800380a:	1b64      	subs	r4, r4, r5
 800380c:	10a4      	asrs	r4, r4, #2
 800380e:	2600      	movs	r6, #0
 8003810:	42a6      	cmp	r6, r4
 8003812:	d109      	bne.n	8003828 <__libc_init_array+0x24>
 8003814:	4d0b      	ldr	r5, [pc, #44]	; (8003844 <__libc_init_array+0x40>)
 8003816:	4c0c      	ldr	r4, [pc, #48]	; (8003848 <__libc_init_array+0x44>)
 8003818:	f000 fc46 	bl	80040a8 <_init>
 800381c:	1b64      	subs	r4, r4, r5
 800381e:	10a4      	asrs	r4, r4, #2
 8003820:	2600      	movs	r6, #0
 8003822:	42a6      	cmp	r6, r4
 8003824:	d105      	bne.n	8003832 <__libc_init_array+0x2e>
 8003826:	bd70      	pop	{r4, r5, r6, pc}
 8003828:	f855 3b04 	ldr.w	r3, [r5], #4
 800382c:	4798      	blx	r3
 800382e:	3601      	adds	r6, #1
 8003830:	e7ee      	b.n	8003810 <__libc_init_array+0xc>
 8003832:	f855 3b04 	ldr.w	r3, [r5], #4
 8003836:	4798      	blx	r3
 8003838:	3601      	adds	r6, #1
 800383a:	e7f2      	b.n	8003822 <__libc_init_array+0x1e>
 800383c:	0800f5c4 	.word	0x0800f5c4
 8003840:	0800f5c4 	.word	0x0800f5c4
 8003844:	0800f5c4 	.word	0x0800f5c4
 8003848:	0800f5c8 	.word	0x0800f5c8

0800384c <siprintf>:
 800384c:	b40e      	push	{r1, r2, r3}
 800384e:	b500      	push	{lr}
 8003850:	b09c      	sub	sp, #112	; 0x70
 8003852:	ab1d      	add	r3, sp, #116	; 0x74
 8003854:	9002      	str	r0, [sp, #8]
 8003856:	9006      	str	r0, [sp, #24]
 8003858:	f06f 4100 	mvn.w	r1, #2147483648	; 0x80000000
 800385c:	4809      	ldr	r0, [pc, #36]	; (8003884 <siprintf+0x38>)
 800385e:	9107      	str	r1, [sp, #28]
 8003860:	9104      	str	r1, [sp, #16]
 8003862:	4909      	ldr	r1, [pc, #36]	; (8003888 <siprintf+0x3c>)
 8003864:	f853 2b04 	ldr.w	r2, [r3], #4
 8003868:	9105      	str	r1, [sp, #20]
 800386a:	6800      	ldr	r0, [r0, #0]
 800386c:	9301      	str	r3, [sp, #4]
 800386e:	a902      	add	r1, sp, #8
 8003870:	f000 f868 	bl	8003944 <_svfiprintf_r>
 8003874:	9b02      	ldr	r3, [sp, #8]
 8003876:	2200      	movs	r2, #0
 8003878:	701a      	strb	r2, [r3, #0]
 800387a:	b01c      	add	sp, #112	; 0x70
 800387c:	f85d eb04 	ldr.w	lr, [sp], #4
 8003880:	b003      	add	sp, #12
 8003882:	4770      	bx	lr
 8003884:	20000014 	.word	0x20000014
 8003888:	ffff0208 	.word	0xffff0208

0800388c <__ssputs_r>:
 800388c:	e92d 47f0 	stmdb	sp!, {r4, r5, r6, r7, r8, r9, sl, lr}
 8003890:	688e      	ldr	r6, [r1, #8]
 8003892:	429e      	cmp	r6, r3
 8003894:	4682      	mov	sl, r0
 8003896:	460c      	mov	r4, r1
 8003898:	4690      	mov	r8, r2
 800389a:	461f      	mov	r7, r3
 800389c:	d838      	bhi.n	8003910 <__ssputs_r+0x84>
 800389e:	898a      	ldrh	r2, [r1, #12]
 80038a0:	f412 6f90 	tst.w	r2, #1152	; 0x480
 80038a4:	d032      	beq.n	800390c <__ssputs_r+0x80>
 80038a6:	6825      	ldr	r5, [r4, #0]
 80038a8:	6909      	ldr	r1, [r1, #16]
 80038aa:	eba5 0901 	sub.w	r9, r5, r1
 80038ae:	6965      	ldr	r5, [r4, #20]
 80038b0:	eb05 0545 	add.w	r5, r5, r5, lsl #1
 80038b4:	eb05 75d5 	add.w	r5, r5, r5, lsr #31
 80038b8:	3301      	adds	r3, #1
 80038ba:	444b      	add	r3, r9
 80038bc:	106d      	asrs	r5, r5, #1
 80038be:	429d      	cmp	r5, r3
 80038c0:	bf38      	it	cc
 80038c2:	461d      	movcc	r5, r3
 80038c4:	0553      	lsls	r3, r2, #21
 80038c6:	d531      	bpl.n	800392c <__ssputs_r+0xa0>
 80038c8:	4629      	mov	r1, r5
 80038ca:	f000 fb47 	bl	8003f5c <_malloc_r>
 80038ce:	4606      	mov	r6, r0
 80038d0:	b950      	cbnz	r0, 80038e8 <__ssputs_r+0x5c>
 80038d2:	230c      	movs	r3, #12
 80038d4:	f8ca 3000 	str.w	r3, [sl]
 80038d8:	89a3      	ldrh	r3, [r4, #12]
 80038da:	f043 0340 	orr.w	r3, r3, #64	; 0x40
 80038de:	81a3      	strh	r3, [r4, #12]
 80038e0:	f04f 30ff 	mov.w	r0, #4294967295
 80038e4:	e8bd 87f0 	ldmia.w	sp!, {r4, r5, r6, r7, r8, r9, sl, pc}
 80038e8:	6921      	ldr	r1, [r4, #16]
 80038ea:	464a      	mov	r2, r9
 80038ec:	f000 fabe 	bl	8003e6c <memcpy>
 80038f0:	89a3      	ldrh	r3, [r4, #12]
 80038f2:	f423 6390 	bic.w	r3, r3, #1152	; 0x480
 80038f6:	f043 0380 	orr.w	r3, r3, #128	; 0x80
 80038fa:	81a3      	strh	r3, [r4, #12]
 80038fc:	6126      	str	r6, [r4, #16]
 80038fe:	6165      	str	r5, [r4, #20]
 8003900:	444e      	add	r6, r9
 8003902:	eba5 0509 	sub.w	r5, r5, r9
 8003906:	6026      	str	r6, [r4, #0]
 8003908:	60a5      	str	r5, [r4, #8]
 800390a:	463e      	mov	r6, r7
 800390c:	42be      	cmp	r6, r7
 800390e:	d900      	bls.n	8003912 <__ssputs_r+0x86>
 8003910:	463e      	mov	r6, r7
 8003912:	4632      	mov	r2, r6
 8003914:	6820      	ldr	r0, [r4, #0]
 8003916:	4641      	mov	r1, r8
 8003918:	f000 fab6 	bl	8003e88 <memmove>
 800391c:	68a3      	ldr	r3, [r4, #8]
 800391e:	6822      	ldr	r2, [r4, #0]
 8003920:	1b9b      	subs	r3, r3, r6
 8003922:	4432      	add	r2, r6
 8003924:	60a3      	str	r3, [r4, #8]
 8003926:	6022      	str	r2, [r4, #0]
 8003928:	2000      	movs	r0, #0
 800392a:	e7db      	b.n	80038e4 <__ssputs_r+0x58>
 800392c:	462a      	mov	r2, r5
 800392e:	f000 fb6f 	bl	8004010 <_realloc_r>
 8003932:	4606      	mov	r6, r0
 8003934:	2800      	cmp	r0, #0
 8003936:	d1e1      	bne.n	80038fc <__ssputs_r+0x70>
 8003938:	6921      	ldr	r1, [r4, #16]
 800393a:	4650      	mov	r0, sl
 800393c:	f000 fabe 	bl	8003ebc <_free_r>
 8003940:	e7c7      	b.n	80038d2 <__ssputs_r+0x46>
	...

08003944 <_svfiprintf_r>:
 8003944:	e92d 4ff0 	stmdb	sp!, {r4, r5, r6, r7, r8, r9, sl, fp, lr}
 8003948:	4698      	mov	r8, r3
 800394a:	898b      	ldrh	r3, [r1, #12]
 800394c:	061b      	lsls	r3, r3, #24
 800394e:	b09d      	sub	sp, #116	; 0x74
 8003950:	4607      	mov	r7, r0
 8003952:	460d      	mov	r5, r1
 8003954:	4614      	mov	r4, r2
 8003956:	d50e      	bpl.n	8003976 <_svfiprintf_r+0x32>
 8003958:	690b      	ldr	r3, [r1, #16]
 800395a:	b963      	cbnz	r3, 8003976 <_svfiprintf_r+0x32>
 800395c:	2140      	movs	r1, #64	; 0x40
 800395e:	f000 fafd 	bl	8003f5c <_malloc_r>
 8003962:	6028      	str	r0, [r5, #0]
 8003964:	6128      	str	r0, [r5, #16]
 8003966:	b920      	cbnz	r0, 8003972 <_svfiprintf_r+0x2e>
 8003968:	230c      	movs	r3, #12
 800396a:	603b      	str	r3, [r7, #0]
 800396c:	f04f 30ff 	mov.w	r0, #4294967295
 8003970:	e0d1      	b.n	8003b16 <_svfiprintf_r+0x1d2>
 8003972:	2340      	movs	r3, #64	; 0x40
 8003974:	616b      	str	r3, [r5, #20]
 8003976:	2300      	movs	r3, #0
 8003978:	9309      	str	r3, [sp, #36]	; 0x24
 800397a:	2320      	movs	r3, #32
 800397c:	f88d 3029 	strb.w	r3, [sp, #41]	; 0x29
 8003980:	f8cd 800c 	str.w	r8, [sp, #12]
 8003984:	2330      	movs	r3, #48	; 0x30
 8003986:	f8df 81a8 	ldr.w	r8, [pc, #424]	; 8003b30 <_svfiprintf_r+0x1ec>
 800398a:	f88d 302a 	strb.w	r3, [sp, #42]	; 0x2a
 800398e:	f04f 0901 	mov.w	r9, #1
 8003992:	4623      	mov	r3, r4
 8003994:	469a      	mov	sl, r3
 8003996:	f813 2b01 	ldrb.w	r2, [r3], #1
 800399a:	b10a      	cbz	r2, 80039a0 <_svfiprintf_r+0x5c>
 800399c:	2a25      	cmp	r2, #37	; 0x25
 800399e:	d1f9      	bne.n	8003994 <_svfiprintf_r+0x50>
 80039a0:	ebba 0b04 	subs.w	fp, sl, r4
 80039a4:	d00b      	beq.n	80039be <_svfiprintf_r+0x7a>
 80039a6:	465b      	mov	r3, fp
 80039a8:	4622      	mov	r2, r4
 80039aa:	4629      	mov	r1, r5
 80039ac:	4638      	mov	r0, r7
 80039ae:	f7ff ff6d 	bl	800388c <__ssputs_r>
 80039b2:	3001      	adds	r0, #1
 80039b4:	f000 80aa 	beq.w	8003b0c <_svfiprintf_r+0x1c8>
 80039b8:	9a09      	ldr	r2, [sp, #36]	; 0x24
 80039ba:	445a      	add	r2, fp
 80039bc:	9209      	str	r2, [sp, #36]	; 0x24
 80039be:	f89a 3000 	ldrb.w	r3, [sl]
 80039c2:	2b00      	cmp	r3, #0
 80039c4:	f000 80a2 	beq.w	8003b0c <_svfiprintf_r+0x1c8>
 80039c8:	2300      	movs	r3, #0
 80039ca:	f04f 32ff 	mov.w	r2, #4294967295
 80039ce:	e9cd 2305 	strd	r2, r3, [sp, #20]
 80039d2:	f10a 0a01 	add.w	sl, sl, #1
 80039d6:	9304      	str	r3, [sp, #16]
 80039d8:	9307      	str	r3, [sp, #28]
 80039da:	f88d 3053 	strb.w	r3, [sp, #83]	; 0x53
 80039de:	931a      	str	r3, [sp, #104]	; 0x68
 80039e0:	4654      	mov	r4, sl
 80039e2:	2205      	movs	r2, #5
 80039e4:	f814 1b01 	ldrb.w	r1, [r4], #1
 80039e8:	4851      	ldr	r0, [pc, #324]	; (8003b30 <_svfiprintf_r+0x1ec>)
 80039ea:	f7fc fbf9 	bl	80001e0 <memchr>
 80039ee:	9a04      	ldr	r2, [sp, #16]
 80039f0:	b9d8      	cbnz	r0, 8003a2a <_svfiprintf_r+0xe6>
 80039f2:	06d0      	lsls	r0, r2, #27
 80039f4:	bf44      	itt	mi
 80039f6:	2320      	movmi	r3, #32
 80039f8:	f88d 3053 	strbmi.w	r3, [sp, #83]	; 0x53
 80039fc:	0711      	lsls	r1, r2, #28
 80039fe:	bf44      	itt	mi
 8003a00:	232b      	movmi	r3, #43	; 0x2b
 8003a02:	f88d 3053 	strbmi.w	r3, [sp, #83]	; 0x53
 8003a06:	f89a 3000 	ldrb.w	r3, [sl]
 8003a0a:	2b2a      	cmp	r3, #42	; 0x2a
 8003a0c:	d015      	beq.n	8003a3a <_svfiprintf_r+0xf6>
 8003a0e:	9a07      	ldr	r2, [sp, #28]
 8003a10:	4654      	mov	r4, sl
 8003a12:	2000      	movs	r0, #0
 8003a14:	f04f 0c0a 	mov.w	ip, #10
 8003a18:	4621      	mov	r1, r4
 8003a1a:	f811 3b01 	ldrb.w	r3, [r1], #1
 8003a1e:	3b30      	subs	r3, #48	; 0x30
 8003a20:	2b09      	cmp	r3, #9
 8003a22:	d94e      	bls.n	8003ac2 <_svfiprintf_r+0x17e>
 8003a24:	b1b0      	cbz	r0, 8003a54 <_svfiprintf_r+0x110>
 8003a26:	9207      	str	r2, [sp, #28]
 8003a28:	e014      	b.n	8003a54 <_svfiprintf_r+0x110>
 8003a2a:	eba0 0308 	sub.w	r3, r0, r8
 8003a2e:	fa09 f303 	lsl.w	r3, r9, r3
 8003a32:	4313      	orrs	r3, r2
 8003a34:	9304      	str	r3, [sp, #16]
 8003a36:	46a2      	mov	sl, r4
 8003a38:	e7d2      	b.n	80039e0 <_svfiprintf_r+0x9c>
 8003a3a:	9b03      	ldr	r3, [sp, #12]
 8003a3c:	1d19      	adds	r1, r3, #4
 8003a3e:	681b      	ldr	r3, [r3, #0]
 8003a40:	9103      	str	r1, [sp, #12]
 8003a42:	2b00      	cmp	r3, #0
 8003a44:	bfbb      	ittet	lt
 8003a46:	425b      	neglt	r3, r3
 8003a48:	f042 0202 	orrlt.w	r2, r2, #2
 8003a4c:	9307      	strge	r3, [sp, #28]
 8003a4e:	9307      	strlt	r3, [sp, #28]
 8003a50:	bfb8      	it	lt
 8003a52:	9204      	strlt	r2, [sp, #16]
 8003a54:	7823      	ldrb	r3, [r4, #0]
 8003a56:	2b2e      	cmp	r3, #46	; 0x2e
 8003a58:	d10c      	bne.n	8003a74 <_svfiprintf_r+0x130>
 8003a5a:	7863      	ldrb	r3, [r4, #1]
 8003a5c:	2b2a      	cmp	r3, #42	; 0x2a
 8003a5e:	d135      	bne.n	8003acc <_svfiprintf_r+0x188>
 8003a60:	9b03      	ldr	r3, [sp, #12]
 8003a62:	1d1a      	adds	r2, r3, #4
 8003a64:	681b      	ldr	r3, [r3, #0]
 8003a66:	9203      	str	r2, [sp, #12]
 8003a68:	2b00      	cmp	r3, #0
 8003a6a:	bfb8      	it	lt
 8003a6c:	f04f 33ff 	movlt.w	r3, #4294967295
 8003a70:	3402      	adds	r4, #2
 8003a72:	9305      	str	r3, [sp, #20]
 8003a74:	f8df a0c8 	ldr.w	sl, [pc, #200]	; 8003b40 <_svfiprintf_r+0x1fc>
 8003a78:	7821      	ldrb	r1, [r4, #0]
 8003a7a:	2203      	movs	r2, #3
 8003a7c:	4650      	mov	r0, sl
 8003a7e:	f7fc fbaf 	bl	80001e0 <memchr>
 8003a82:	b140      	cbz	r0, 8003a96 <_svfiprintf_r+0x152>
 8003a84:	2340      	movs	r3, #64	; 0x40
 8003a86:	eba0 000a 	sub.w	r0, r0, sl
 8003a8a:	fa03 f000 	lsl.w	r0, r3, r0
 8003a8e:	9b04      	ldr	r3, [sp, #16]
 8003a90:	4303      	orrs	r3, r0
 8003a92:	3401      	adds	r4, #1
 8003a94:	9304      	str	r3, [sp, #16]
 8003a96:	f814 1b01 	ldrb.w	r1, [r4], #1
 8003a9a:	4826      	ldr	r0, [pc, #152]	; (8003b34 <_svfiprintf_r+0x1f0>)
 8003a9c:	f88d 1028 	strb.w	r1, [sp, #40]	; 0x28
 8003aa0:	2206      	movs	r2, #6
 8003aa2:	f7fc fb9d 	bl	80001e0 <memchr>
 8003aa6:	2800      	cmp	r0, #0
 8003aa8:	d038      	beq.n	8003b1c <_svfiprintf_r+0x1d8>
 8003aaa:	4b23      	ldr	r3, [pc, #140]	; (8003b38 <_svfiprintf_r+0x1f4>)
 8003aac:	bb1b      	cbnz	r3, 8003af6 <_svfiprintf_r+0x1b2>
 8003aae:	9b03      	ldr	r3, [sp, #12]
 8003ab0:	3307      	adds	r3, #7
 8003ab2:	f023 0307 	bic.w	r3, r3, #7
 8003ab6:	3308      	adds	r3, #8
 8003ab8:	9303      	str	r3, [sp, #12]
 8003aba:	9b09      	ldr	r3, [sp, #36]	; 0x24
 8003abc:	4433      	add	r3, r6
 8003abe:	9309      	str	r3, [sp, #36]	; 0x24
 8003ac0:	e767      	b.n	8003992 <_svfiprintf_r+0x4e>
 8003ac2:	fb0c 3202 	mla	r2, ip, r2, r3
 8003ac6:	460c      	mov	r4, r1
 8003ac8:	2001      	movs	r0, #1
 8003aca:	e7a5      	b.n	8003a18 <_svfiprintf_r+0xd4>
 8003acc:	2300      	movs	r3, #0
 8003ace:	3401      	adds	r4, #1
 8003ad0:	9305      	str	r3, [sp, #20]
 8003ad2:	4619      	mov	r1, r3
 8003ad4:	f04f 0c0a 	mov.w	ip, #10
 8003ad8:	4620      	mov	r0, r4
 8003ada:	f810 2b01 	ldrb.w	r2, [r0], #1
 8003ade:	3a30      	subs	r2, #48	; 0x30
 8003ae0:	2a09      	cmp	r2, #9
 8003ae2:	d903      	bls.n	8003aec <_svfiprintf_r+0x1a8>
 8003ae4:	2b00      	cmp	r3, #0
 8003ae6:	d0c5      	beq.n	8003a74 <_svfiprintf_r+0x130>
 8003ae8:	9105      	str	r1, [sp, #20]
 8003aea:	e7c3      	b.n	8003a74 <_svfiprintf_r+0x130>
 8003aec:	fb0c 2101 	mla	r1, ip, r1, r2
 8003af0:	4604      	mov	r4, r0
 8003af2:	2301      	movs	r3, #1
 8003af4:	e7f0      	b.n	8003ad8 <_svfiprintf_r+0x194>
 8003af6:	ab03      	add	r3, sp, #12
 8003af8:	9300      	str	r3, [sp, #0]
 8003afa:	462a      	mov	r2, r5
 8003afc:	4b0f      	ldr	r3, [pc, #60]	; (8003b3c <_svfiprintf_r+0x1f8>)
 8003afe:	a904      	add	r1, sp, #16
 8003b00:	4638      	mov	r0, r7
 8003b02:	f3af 8000 	nop.w
 8003b06:	1c42      	adds	r2, r0, #1
 8003b08:	4606      	mov	r6, r0
 8003b0a:	d1d6      	bne.n	8003aba <_svfiprintf_r+0x176>
 8003b0c:	89ab      	ldrh	r3, [r5, #12]
 8003b0e:	065b      	lsls	r3, r3, #25
 8003b10:	f53f af2c 	bmi.w	800396c <_svfiprintf_r+0x28>
 8003b14:	9809      	ldr	r0, [sp, #36]	; 0x24
 8003b16:	b01d      	add	sp, #116	; 0x74
 8003b18:	e8bd 8ff0 	ldmia.w	sp!, {r4, r5, r6, r7, r8, r9, sl, fp, pc}
 8003b1c:	ab03      	add	r3, sp, #12
 8003b1e:	9300      	str	r3, [sp, #0]
 8003b20:	462a      	mov	r2, r5
 8003b22:	4b06      	ldr	r3, [pc, #24]	; (8003b3c <_svfiprintf_r+0x1f8>)
 8003b24:	a904      	add	r1, sp, #16
 8003b26:	4638      	mov	r0, r7
 8003b28:	f000 f87a 	bl	8003c20 <_printf_i>
 8003b2c:	e7eb      	b.n	8003b06 <_svfiprintf_r+0x1c2>
 8003b2e:	bf00      	nop
 8003b30:	0800f588 	.word	0x0800f588
 8003b34:	0800f592 	.word	0x0800f592
 8003b38:	00000000 	.word	0x00000000
 8003b3c:	0800388d 	.word	0x0800388d
 8003b40:	0800f58e 	.word	0x0800f58e

08003b44 <_printf_common>:
 8003b44:	e92d 47f0 	stmdb	sp!, {r4, r5, r6, r7, r8, r9, sl, lr}
 8003b48:	4616      	mov	r6, r2
 8003b4a:	4699      	mov	r9, r3
 8003b4c:	688a      	ldr	r2, [r1, #8]
 8003b4e:	690b      	ldr	r3, [r1, #16]
 8003b50:	f8dd 8020 	ldr.w	r8, [sp, #32]
 8003b54:	4293      	cmp	r3, r2
 8003b56:	bfb8      	it	lt
 8003b58:	4613      	movlt	r3, r2
 8003b5a:	6033      	str	r3, [r6, #0]
 8003b5c:	f891 2043 	ldrb.w	r2, [r1, #67]	; 0x43
 8003b60:	4607      	mov	r7, r0
 8003b62:	460c      	mov	r4, r1
 8003b64:	b10a      	cbz	r2, 8003b6a <_printf_common+0x26>
 8003b66:	3301      	adds	r3, #1
 8003b68:	6033      	str	r3, [r6, #0]
 8003b6a:	6823      	ldr	r3, [r4, #0]
 8003b6c:	0699      	lsls	r1, r3, #26
 8003b6e:	bf42      	ittt	mi
 8003b70:	6833      	ldrmi	r3, [r6, #0]
 8003b72:	3302      	addmi	r3, #2
 8003b74:	6033      	strmi	r3, [r6, #0]
 8003b76:	6825      	ldr	r5, [r4, #0]
 8003b78:	f015 0506 	ands.w	r5, r5, #6
 8003b7c:	d106      	bne.n	8003b8c <_printf_common+0x48>
 8003b7e:	f104 0a19 	add.w	sl, r4, #25
 8003b82:	68e3      	ldr	r3, [r4, #12]
 8003b84:	6832      	ldr	r2, [r6, #0]
 8003b86:	1a9b      	subs	r3, r3, r2
 8003b88:	42ab      	cmp	r3, r5
 8003b8a:	dc26      	bgt.n	8003bda <_printf_common+0x96>
 8003b8c:	f894 2043 	ldrb.w	r2, [r4, #67]	; 0x43
 8003b90:	1e13      	subs	r3, r2, #0
 8003b92:	6822      	ldr	r2, [r4, #0]
 8003b94:	bf18      	it	ne
 8003b96:	2301      	movne	r3, #1
 8003b98:	0692      	lsls	r2, r2, #26
 8003b9a:	d42b      	bmi.n	8003bf4 <_printf_common+0xb0>
 8003b9c:	f104 0243 	add.w	r2, r4, #67	; 0x43
 8003ba0:	4649      	mov	r1, r9
 8003ba2:	4638      	mov	r0, r7
 8003ba4:	47c0      	blx	r8
 8003ba6:	3001      	adds	r0, #1
 8003ba8:	d01e      	beq.n	8003be8 <_printf_common+0xa4>
 8003baa:	6823      	ldr	r3, [r4, #0]
 8003bac:	68e5      	ldr	r5, [r4, #12]
 8003bae:	6832      	ldr	r2, [r6, #0]
 8003bb0:	f003 0306 	and.w	r3, r3, #6
 8003bb4:	2b04      	cmp	r3, #4
 8003bb6:	bf08      	it	eq
 8003bb8:	1aad      	subeq	r5, r5, r2
 8003bba:	68a3      	ldr	r3, [r4, #8]
 8003bbc:	6922      	ldr	r2, [r4, #16]
 8003bbe:	bf0c      	ite	eq
 8003bc0:	ea25 75e5 	biceq.w	r5, r5, r5, asr #31
 8003bc4:	2500      	movne	r5, #0
 8003bc6:	4293      	cmp	r3, r2
 8003bc8:	bfc4      	itt	gt
 8003bca:	1a9b      	subgt	r3, r3, r2
 8003bcc:	18ed      	addgt	r5, r5, r3
 8003bce:	2600      	movs	r6, #0
 8003bd0:	341a      	adds	r4, #26
 8003bd2:	42b5      	cmp	r5, r6
 8003bd4:	d11a      	bne.n	8003c0c <_printf_common+0xc8>
 8003bd6:	2000      	movs	r0, #0
 8003bd8:	e008      	b.n	8003bec <_printf_common+0xa8>
 8003bda:	2301      	movs	r3, #1
 8003bdc:	4652      	mov	r2, sl
 8003bde:	4649      	mov	r1, r9
 8003be0:	4638      	mov	r0, r7
 8003be2:	47c0      	blx	r8
 8003be4:	3001      	adds	r0, #1
 8003be6:	d103      	bne.n	8003bf0 <_printf_common+0xac>
 8003be8:	f04f 30ff 	mov.w	r0, #4294967295
 8003bec:	e8bd 87f0 	ldmia.w	sp!, {r4, r5, r6, r7, r8, r9, sl, pc}
 8003bf0:	3501      	adds	r5, #1
 8003bf2:	e7c6      	b.n	8003b82 <_printf_common+0x3e>
 8003bf4:	18e1      	adds	r1, r4, r3
 8003bf6:	1c5a      	adds	r2, r3, #1
 8003bf8:	2030      	movs	r0, #48	; 0x30
 8003bfa:	f881 0043 	strb.w	r0, [r1, #67]	; 0x43
 8003bfe:	4422      	add	r2, r4
 8003c00:	f894 1045 	ldrb.w	r1, [r4, #69]	; 0x45
 8003c04:	f882 1043 	strb.w	r1, [r2, #67]	; 0x43
 8003c08:	3302      	adds	r3, #2
 8003c0a:	e7c7      	b.n	8003b9c <_printf_common+0x58>
 8003c0c:	2301      	movs	r3, #1
 8003c0e:	4622      	mov	r2, r4
 8003c10:	4649      	mov	r1, r9
 8003c12:	4638      	mov	r0, r7
 8003c14:	47c0      	blx	r8
 8003c16:	3001      	adds	r0, #1
 8003c18:	d0e6      	beq.n	8003be8 <_printf_common+0xa4>
 8003c1a:	3601      	adds	r6, #1
 8003c1c:	e7d9      	b.n	8003bd2 <_printf_common+0x8e>
	...

08003c20 <_printf_i>:
 8003c20:	e92d 47ff 	stmdb	sp!, {r0, r1, r2, r3, r4, r5, r6, r7, r8, r9, sl, lr}
 8003c24:	460c      	mov	r4, r1
 8003c26:	4691      	mov	r9, r2
 8003c28:	7e27      	ldrb	r7, [r4, #24]
 8003c2a:	990c      	ldr	r1, [sp, #48]	; 0x30
 8003c2c:	2f78      	cmp	r7, #120	; 0x78
 8003c2e:	4680      	mov	r8, r0
 8003c30:	469a      	mov	sl, r3
 8003c32:	f104 0243 	add.w	r2, r4, #67	; 0x43
 8003c36:	d807      	bhi.n	8003c48 <_printf_i+0x28>
 8003c38:	2f62      	cmp	r7, #98	; 0x62
 8003c3a:	d80a      	bhi.n	8003c52 <_printf_i+0x32>
 8003c3c:	2f00      	cmp	r7, #0
 8003c3e:	f000 80d8 	beq.w	8003df2 <_printf_i+0x1d2>
 8003c42:	2f58      	cmp	r7, #88	; 0x58
 8003c44:	f000 80a3 	beq.w	8003d8e <_printf_i+0x16e>
 8003c48:	f104 0642 	add.w	r6, r4, #66	; 0x42
 8003c4c:	f884 7042 	strb.w	r7, [r4, #66]	; 0x42
 8003c50:	e03a      	b.n	8003cc8 <_printf_i+0xa8>
 8003c52:	f1a7 0363 	sub.w	r3, r7, #99	; 0x63
 8003c56:	2b15      	cmp	r3, #21
 8003c58:	d8f6      	bhi.n	8003c48 <_printf_i+0x28>
 8003c5a:	a001      	add	r0, pc, #4	; (adr r0, 8003c60 <_printf_i+0x40>)
 8003c5c:	f850 f023 	ldr.w	pc, [r0, r3, lsl #2]
 8003c60:	08003cb9 	.word	0x08003cb9
 8003c64:	08003ccd 	.word	0x08003ccd
 8003c68:	08003c49 	.word	0x08003c49
 8003c6c:	08003c49 	.word	0x08003c49
 8003c70:	08003c49 	.word	0x08003c49
 8003c74:	08003c49 	.word	0x08003c49
 8003c78:	08003ccd 	.word	0x08003ccd
 8003c7c:	08003c49 	.word	0x08003c49
 8003c80:	08003c49 	.word	0x08003c49
 8003c84:	08003c49 	.word	0x08003c49
 8003c88:	08003c49 	.word	0x08003c49
 8003c8c:	08003dd9 	.word	0x08003dd9
 8003c90:	08003cfd 	.word	0x08003cfd
 8003c94:	08003dbb 	.word	0x08003dbb
 8003c98:	08003c49 	.word	0x08003c49
 8003c9c:	08003c49 	.word	0x08003c49
 8003ca0:	08003dfb 	.word	0x08003dfb
 8003ca4:	08003c49 	.word	0x08003c49
 8003ca8:	08003cfd 	.word	0x08003cfd
 8003cac:	08003c49 	.word	0x08003c49
 8003cb0:	08003c49 	.word	0x08003c49
 8003cb4:	08003dc3 	.word	0x08003dc3
 8003cb8:	680b      	ldr	r3, [r1, #0]
 8003cba:	1d1a      	adds	r2, r3, #4
 8003cbc:	681b      	ldr	r3, [r3, #0]
 8003cbe:	600a      	str	r2, [r1, #0]
 8003cc0:	f104 0642 	add.w	r6, r4, #66	; 0x42
 8003cc4:	f884 3042 	strb.w	r3, [r4, #66]	; 0x42
 8003cc8:	2301      	movs	r3, #1
 8003cca:	e0a3      	b.n	8003e14 <_printf_i+0x1f4>
 8003ccc:	6825      	ldr	r5, [r4, #0]
 8003cce:	6808      	ldr	r0, [r1, #0]
 8003cd0:	062e      	lsls	r6, r5, #24
 8003cd2:	f100 0304 	add.w	r3, r0, #4
 8003cd6:	d50a      	bpl.n	8003cee <_printf_i+0xce>
 8003cd8:	6805      	ldr	r5, [r0, #0]
 8003cda:	600b      	str	r3, [r1, #0]
 8003cdc:	2d00      	cmp	r5, #0
 8003cde:	da03      	bge.n	8003ce8 <_printf_i+0xc8>
 8003ce0:	232d      	movs	r3, #45	; 0x2d
 8003ce2:	426d      	negs	r5, r5
 8003ce4:	f884 3043 	strb.w	r3, [r4, #67]	; 0x43
 8003ce8:	485e      	ldr	r0, [pc, #376]	; (8003e64 <_printf_i+0x244>)
 8003cea:	230a      	movs	r3, #10
 8003cec:	e019      	b.n	8003d22 <_printf_i+0x102>
 8003cee:	f015 0f40 	tst.w	r5, #64	; 0x40
 8003cf2:	6805      	ldr	r5, [r0, #0]
 8003cf4:	600b      	str	r3, [r1, #0]
 8003cf6:	bf18      	it	ne
 8003cf8:	b22d      	sxthne	r5, r5
 8003cfa:	e7ef      	b.n	8003cdc <_printf_i+0xbc>
 8003cfc:	680b      	ldr	r3, [r1, #0]
 8003cfe:	6825      	ldr	r5, [r4, #0]
 8003d00:	1d18      	adds	r0, r3, #4
 8003d02:	6008      	str	r0, [r1, #0]
 8003d04:	0628      	lsls	r0, r5, #24
 8003d06:	d501      	bpl.n	8003d0c <_printf_i+0xec>
 8003d08:	681d      	ldr	r5, [r3, #0]
 8003d0a:	e002      	b.n	8003d12 <_printf_i+0xf2>
 8003d0c:	0669      	lsls	r1, r5, #25
 8003d0e:	d5fb      	bpl.n	8003d08 <_printf_i+0xe8>
 8003d10:	881d      	ldrh	r5, [r3, #0]
 8003d12:	4854      	ldr	r0, [pc, #336]	; (8003e64 <_printf_i+0x244>)
 8003d14:	2f6f      	cmp	r7, #111	; 0x6f
 8003d16:	bf0c      	ite	eq
 8003d18:	2308      	moveq	r3, #8
 8003d1a:	230a      	movne	r3, #10
 8003d1c:	2100      	movs	r1, #0
 8003d1e:	f884 1043 	strb.w	r1, [r4, #67]	; 0x43
 8003d22:	6866      	ldr	r6, [r4, #4]
 8003d24:	60a6      	str	r6, [r4, #8]
 8003d26:	2e00      	cmp	r6, #0
 8003d28:	bfa2      	ittt	ge
 8003d2a:	6821      	ldrge	r1, [r4, #0]
 8003d2c:	f021 0104 	bicge.w	r1, r1, #4
 8003d30:	6021      	strge	r1, [r4, #0]
 8003d32:	b90d      	cbnz	r5, 8003d38 <_printf_i+0x118>
 8003d34:	2e00      	cmp	r6, #0
 8003d36:	d04d      	beq.n	8003dd4 <_printf_i+0x1b4>
 8003d38:	4616      	mov	r6, r2
 8003d3a:	fbb5 f1f3 	udiv	r1, r5, r3
 8003d3e:	fb03 5711 	mls	r7, r3, r1, r5
 8003d42:	5dc7      	ldrb	r7, [r0, r7]
 8003d44:	f806 7d01 	strb.w	r7, [r6, #-1]!
 8003d48:	462f      	mov	r7, r5
 8003d4a:	42bb      	cmp	r3, r7
 8003d4c:	460d      	mov	r5, r1
 8003d4e:	d9f4      	bls.n	8003d3a <_printf_i+0x11a>
 8003d50:	2b08      	cmp	r3, #8
 8003d52:	d10b      	bne.n	8003d6c <_printf_i+0x14c>
 8003d54:	6823      	ldr	r3, [r4, #0]
 8003d56:	07df      	lsls	r7, r3, #31
 8003d58:	d508      	bpl.n	8003d6c <_printf_i+0x14c>
 8003d5a:	6923      	ldr	r3, [r4, #16]
 8003d5c:	6861      	ldr	r1, [r4, #4]
 8003d5e:	4299      	cmp	r1, r3
 8003d60:	bfde      	ittt	le
 8003d62:	2330      	movle	r3, #48	; 0x30
 8003d64:	f806 3c01 	strble.w	r3, [r6, #-1]
 8003d68:	f106 36ff 	addle.w	r6, r6, #4294967295
 8003d6c:	1b92      	subs	r2, r2, r6
 8003d6e:	6122      	str	r2, [r4, #16]
 8003d70:	f8cd a000 	str.w	sl, [sp]
 8003d74:	464b      	mov	r3, r9
 8003d76:	aa03      	add	r2, sp, #12
 8003d78:	4621      	mov	r1, r4
 8003d7a:	4640      	mov	r0, r8
 8003d7c:	f7ff fee2 	bl	8003b44 <_printf_common>
 8003d80:	3001      	adds	r0, #1
 8003d82:	d14c      	bne.n	8003e1e <_printf_i+0x1fe>
 8003d84:	f04f 30ff 	mov.w	r0, #4294967295
 8003d88:	b004      	add	sp, #16
 8003d8a:	e8bd 87f0 	ldmia.w	sp!, {r4, r5, r6, r7, r8, r9, sl, pc}
 8003d8e:	4835      	ldr	r0, [pc, #212]	; (8003e64 <_printf_i+0x244>)
 8003d90:	f884 7045 	strb.w	r7, [r4, #69]	; 0x45
 8003d94:	6823      	ldr	r3, [r4, #0]
 8003d96:	680e      	ldr	r6, [r1, #0]
 8003d98:	061f      	lsls	r7, r3, #24
 8003d9a:	f856 5b04 	ldr.w	r5, [r6], #4
 8003d9e:	600e      	str	r6, [r1, #0]
 8003da0:	d514      	bpl.n	8003dcc <_printf_i+0x1ac>
 8003da2:	07d9      	lsls	r1, r3, #31
 8003da4:	bf44      	itt	mi
 8003da6:	f043 0320 	orrmi.w	r3, r3, #32
 8003daa:	6023      	strmi	r3, [r4, #0]
 8003dac:	b91d      	cbnz	r5, 8003db6 <_printf_i+0x196>
 8003dae:	6823      	ldr	r3, [r4, #0]
 8003db0:	f023 0320 	bic.w	r3, r3, #32
 8003db4:	6023      	str	r3, [r4, #0]
 8003db6:	2310      	movs	r3, #16
 8003db8:	e7b0      	b.n	8003d1c <_printf_i+0xfc>
 8003dba:	6823      	ldr	r3, [r4, #0]
 8003dbc:	f043 0320 	orr.w	r3, r3, #32
 8003dc0:	6023      	str	r3, [r4, #0]
 8003dc2:	2378      	movs	r3, #120	; 0x78
 8003dc4:	4828      	ldr	r0, [pc, #160]	; (8003e68 <_printf_i+0x248>)
 8003dc6:	f884 3045 	strb.w	r3, [r4, #69]	; 0x45
 8003dca:	e7e3      	b.n	8003d94 <_printf_i+0x174>
 8003dcc:	065e      	lsls	r6, r3, #25
 8003dce:	bf48      	it	mi
 8003dd0:	b2ad      	uxthmi	r5, r5
 8003dd2:	e7e6      	b.n	8003da2 <_printf_i+0x182>
 8003dd4:	4616      	mov	r6, r2
 8003dd6:	e7bb      	b.n	8003d50 <_printf_i+0x130>
 8003dd8:	680b      	ldr	r3, [r1, #0]
 8003dda:	6826      	ldr	r6, [r4, #0]
 8003ddc:	6960      	ldr	r0, [r4, #20]
 8003dde:	1d1d      	adds	r5, r3, #4
 8003de0:	600d      	str	r5, [r1, #0]
 8003de2:	0635      	lsls	r5, r6, #24
 8003de4:	681b      	ldr	r3, [r3, #0]
 8003de6:	d501      	bpl.n	8003dec <_printf_i+0x1cc>
 8003de8:	6018      	str	r0, [r3, #0]
 8003dea:	e002      	b.n	8003df2 <_printf_i+0x1d2>
 8003dec:	0671      	lsls	r1, r6, #25
 8003dee:	d5fb      	bpl.n	8003de8 <_printf_i+0x1c8>
 8003df0:	8018      	strh	r0, [r3, #0]
 8003df2:	2300      	movs	r3, #0
 8003df4:	6123      	str	r3, [r4, #16]
 8003df6:	4616      	mov	r6, r2
 8003df8:	e7ba      	b.n	8003d70 <_printf_i+0x150>
 8003dfa:	680b      	ldr	r3, [r1, #0]
 8003dfc:	1d1a      	adds	r2, r3, #4
 8003dfe:	600a      	str	r2, [r1, #0]
 8003e00:	681e      	ldr	r6, [r3, #0]
 8003e02:	6862      	ldr	r2, [r4, #4]
 8003e04:	2100      	movs	r1, #0
 8003e06:	4630      	mov	r0, r6
 8003e08:	f7fc f9ea 	bl	80001e0 <memchr>
 8003e0c:	b108      	cbz	r0, 8003e12 <_printf_i+0x1f2>
 8003e0e:	1b80      	subs	r0, r0, r6
 8003e10:	6060      	str	r0, [r4, #4]
 8003e12:	6863      	ldr	r3, [r4, #4]
 8003e14:	6123      	str	r3, [r4, #16]
 8003e16:	2300      	movs	r3, #0
 8003e18:	f884 3043 	strb.w	r3, [r4, #67]	; 0x43
 8003e1c:	e7a8      	b.n	8003d70 <_printf_i+0x150>
 8003e1e:	6923      	ldr	r3, [r4, #16]
 8003e20:	4632      	mov	r2, r6
 8003e22:	4649      	mov	r1, r9
 8003e24:	4640      	mov	r0, r8
 8003e26:	47d0      	blx	sl
 8003e28:	3001      	adds	r0, #1
 8003e2a:	d0ab      	beq.n	8003d84 <_printf_i+0x164>
 8003e2c:	6823      	ldr	r3, [r4, #0]
 8003e2e:	079b      	lsls	r3, r3, #30
 8003e30:	d413      	bmi.n	8003e5a <_printf_i+0x23a>
 8003e32:	68e0      	ldr	r0, [r4, #12]
 8003e34:	9b03      	ldr	r3, [sp, #12]
 8003e36:	4298      	cmp	r0, r3
 8003e38:	bfb8      	it	lt
 8003e3a:	4618      	movlt	r0, r3
 8003e3c:	e7a4      	b.n	8003d88 <_printf_i+0x168>
 8003e3e:	2301      	movs	r3, #1
 8003e40:	4632      	mov	r2, r6
 8003e42:	4649      	mov	r1, r9
 8003e44:	4640      	mov	r0, r8
 8003e46:	47d0      	blx	sl
 8003e48:	3001      	adds	r0, #1
 8003e4a:	d09b      	beq.n	8003d84 <_printf_i+0x164>
 8003e4c:	3501      	adds	r5, #1
 8003e4e:	68e3      	ldr	r3, [r4, #12]
 8003e50:	9903      	ldr	r1, [sp, #12]
 8003e52:	1a5b      	subs	r3, r3, r1
 8003e54:	42ab      	cmp	r3, r5
 8003e56:	dcf2      	bgt.n	8003e3e <_printf_i+0x21e>
 8003e58:	e7eb      	b.n	8003e32 <_printf_i+0x212>
 8003e5a:	2500      	movs	r5, #0
 8003e5c:	f104 0619 	add.w	r6, r4, #25
 8003e60:	e7f5      	b.n	8003e4e <_printf_i+0x22e>
 8003e62:	bf00      	nop
 8003e64:	0800f599 	.word	0x0800f599
 8003e68:	0800f5aa 	.word	0x0800f5aa

08003e6c <memcpy>:
 8003e6c:	440a      	add	r2, r1
 8003e6e:	4291      	cmp	r1, r2
 8003e70:	f100 33ff 	add.w	r3, r0, #4294967295
 8003e74:	d100      	bne.n	8003e78 <memcpy+0xc>
 8003e76:	4770      	bx	lr
 8003e78:	b510      	push	{r4, lr}
 8003e7a:	f811 4b01 	ldrb.w	r4, [r1], #1
 8003e7e:	f803 4f01 	strb.w	r4, [r3, #1]!
 8003e82:	4291      	cmp	r1, r2
 8003e84:	d1f9      	bne.n	8003e7a <memcpy+0xe>
 8003e86:	bd10      	pop	{r4, pc}

08003e88 <memmove>:
 8003e88:	4288      	cmp	r0, r1
 8003e8a:	b510      	push	{r4, lr}
 8003e8c:	eb01 0402 	add.w	r4, r1, r2
 8003e90:	d902      	bls.n	8003e98 <memmove+0x10>
 8003e92:	4284      	cmp	r4, r0
 8003e94:	4623      	mov	r3, r4
 8003e96:	d807      	bhi.n	8003ea8 <memmove+0x20>
 8003e98:	1e43      	subs	r3, r0, #1
 8003e9a:	42a1      	cmp	r1, r4
 8003e9c:	d008      	beq.n	8003eb0 <memmove+0x28>
 8003e9e:	f811 2b01 	ldrb.w	r2, [r1], #1
 8003ea2:	f803 2f01 	strb.w	r2, [r3, #1]!
 8003ea6:	e7f8      	b.n	8003e9a <memmove+0x12>
 8003ea8:	4402      	add	r2, r0
 8003eaa:	4601      	mov	r1, r0
 8003eac:	428a      	cmp	r2, r1
 8003eae:	d100      	bne.n	8003eb2 <memmove+0x2a>
 8003eb0:	bd10      	pop	{r4, pc}
 8003eb2:	f813 4d01 	ldrb.w	r4, [r3, #-1]!
 8003eb6:	f802 4d01 	strb.w	r4, [r2, #-1]!
 8003eba:	e7f7      	b.n	8003eac <memmove+0x24>

08003ebc <_free_r>:
 8003ebc:	b537      	push	{r0, r1, r2, r4, r5, lr}
 8003ebe:	2900      	cmp	r1, #0
 8003ec0:	d048      	beq.n	8003f54 <_free_r+0x98>
 8003ec2:	f851 3c04 	ldr.w	r3, [r1, #-4]
 8003ec6:	9001      	str	r0, [sp, #4]
 8003ec8:	2b00      	cmp	r3, #0
 8003eca:	f1a1 0404 	sub.w	r4, r1, #4
 8003ece:	bfb8      	it	lt
 8003ed0:	18e4      	addlt	r4, r4, r3
 8003ed2:	f000 f8d3 	bl	800407c <__malloc_lock>
 8003ed6:	4a20      	ldr	r2, [pc, #128]	; (8003f58 <_free_r+0x9c>)
 8003ed8:	9801      	ldr	r0, [sp, #4]
 8003eda:	6813      	ldr	r3, [r2, #0]
 8003edc:	4615      	mov	r5, r2
 8003ede:	b933      	cbnz	r3, 8003eee <_free_r+0x32>
 8003ee0:	6063      	str	r3, [r4, #4]
 8003ee2:	6014      	str	r4, [r2, #0]
 8003ee4:	b003      	add	sp, #12
 8003ee6:	e8bd 4030 	ldmia.w	sp!, {r4, r5, lr}
 8003eea:	f000 b8cd 	b.w	8004088 <__malloc_unlock>
 8003eee:	42a3      	cmp	r3, r4
 8003ef0:	d90b      	bls.n	8003f0a <_free_r+0x4e>
 8003ef2:	6821      	ldr	r1, [r4, #0]
 8003ef4:	1862      	adds	r2, r4, r1
 8003ef6:	4293      	cmp	r3, r2
 8003ef8:	bf04      	itt	eq
 8003efa:	681a      	ldreq	r2, [r3, #0]
 8003efc:	685b      	ldreq	r3, [r3, #4]
 8003efe:	6063      	str	r3, [r4, #4]
 8003f00:	bf04      	itt	eq
 8003f02:	1852      	addeq	r2, r2, r1
 8003f04:	6022      	streq	r2, [r4, #0]
 8003f06:	602c      	str	r4, [r5, #0]
 8003f08:	e7ec      	b.n	8003ee4 <_free_r+0x28>
 8003f0a:	461a      	mov	r2, r3
 8003f0c:	685b      	ldr	r3, [r3, #4]
 8003f0e:	b10b      	cbz	r3, 8003f14 <_free_r+0x58>
 8003f10:	42a3      	cmp	r3, r4
 8003f12:	d9fa      	bls.n	8003f0a <_free_r+0x4e>
 8003f14:	6811      	ldr	r1, [r2, #0]
 8003f16:	1855      	adds	r5, r2, r1
 8003f18:	42a5      	cmp	r5, r4
 8003f1a:	d10b      	bne.n	8003f34 <_free_r+0x78>
 8003f1c:	6824      	ldr	r4, [r4, #0]
 8003f1e:	4421      	add	r1, r4
 8003f20:	1854      	adds	r4, r2, r1
 8003f22:	42a3      	cmp	r3, r4
 8003f24:	6011      	str	r1, [r2, #0]
 8003f26:	d1dd      	bne.n	8003ee4 <_free_r+0x28>
 8003f28:	681c      	ldr	r4, [r3, #0]
 8003f2a:	685b      	ldr	r3, [r3, #4]
 8003f2c:	6053      	str	r3, [r2, #4]
 8003f2e:	4421      	add	r1, r4
 8003f30:	6011      	str	r1, [r2, #0]
 8003f32:	e7d7      	b.n	8003ee4 <_free_r+0x28>
 8003f34:	d902      	bls.n	8003f3c <_free_r+0x80>
 8003f36:	230c      	movs	r3, #12
 8003f38:	6003      	str	r3, [r0, #0]
 8003f3a:	e7d3      	b.n	8003ee4 <_free_r+0x28>
 8003f3c:	6825      	ldr	r5, [r4, #0]
 8003f3e:	1961      	adds	r1, r4, r5
 8003f40:	428b      	cmp	r3, r1
 8003f42:	bf04      	itt	eq
 8003f44:	6819      	ldreq	r1, [r3, #0]
 8003f46:	685b      	ldreq	r3, [r3, #4]
 8003f48:	6063      	str	r3, [r4, #4]
 8003f4a:	bf04      	itt	eq
 8003f4c:	1949      	addeq	r1, r1, r5
 8003f4e:	6021      	streq	r1, [r4, #0]
 8003f50:	6054      	str	r4, [r2, #4]
 8003f52:	e7c7      	b.n	8003ee4 <_free_r+0x28>
 8003f54:	b003      	add	sp, #12
 8003f56:	bd30      	pop	{r4, r5, pc}
 8003f58:	2000009c 	.word	0x2000009c

08003f5c <_malloc_r>:
 8003f5c:	b5f8      	push	{r3, r4, r5, r6, r7, lr}
 8003f5e:	1ccd      	adds	r5, r1, #3
 8003f60:	f025 0503 	bic.w	r5, r5, #3
 8003f64:	3508      	adds	r5, #8
 8003f66:	2d0c      	cmp	r5, #12
 8003f68:	bf38      	it	cc
 8003f6a:	250c      	movcc	r5, #12
 8003f6c:	2d00      	cmp	r5, #0
 8003f6e:	4606      	mov	r6, r0
 8003f70:	db01      	blt.n	8003f76 <_malloc_r+0x1a>
 8003f72:	42a9      	cmp	r1, r5
 8003f74:	d903      	bls.n	8003f7e <_malloc_r+0x22>
 8003f76:	230c      	movs	r3, #12
 8003f78:	6033      	str	r3, [r6, #0]
 8003f7a:	2000      	movs	r0, #0
 8003f7c:	bdf8      	pop	{r3, r4, r5, r6, r7, pc}
 8003f7e:	f000 f87d 	bl	800407c <__malloc_lock>
 8003f82:	4921      	ldr	r1, [pc, #132]	; (8004008 <_malloc_r+0xac>)
 8003f84:	680a      	ldr	r2, [r1, #0]
 8003f86:	4614      	mov	r4, r2
 8003f88:	b99c      	cbnz	r4, 8003fb2 <_malloc_r+0x56>
 8003f8a:	4f20      	ldr	r7, [pc, #128]	; (800400c <_malloc_r+0xb0>)
 8003f8c:	683b      	ldr	r3, [r7, #0]
 8003f8e:	b923      	cbnz	r3, 8003f9a <_malloc_r+0x3e>
 8003f90:	4621      	mov	r1, r4
 8003f92:	4630      	mov	r0, r6
 8003f94:	f000 f862 	bl	800405c <_sbrk_r>
 8003f98:	6038      	str	r0, [r7, #0]
 8003f9a:	4629      	mov	r1, r5
 8003f9c:	4630      	mov	r0, r6
 8003f9e:	f000 f85d 	bl	800405c <_sbrk_r>
 8003fa2:	1c43      	adds	r3, r0, #1
 8003fa4:	d123      	bne.n	8003fee <_malloc_r+0x92>
 8003fa6:	230c      	movs	r3, #12
 8003fa8:	6033      	str	r3, [r6, #0]
 8003faa:	4630      	mov	r0, r6
 8003fac:	f000 f86c 	bl	8004088 <__malloc_unlock>
 8003fb0:	e7e3      	b.n	8003f7a <_malloc_r+0x1e>
 8003fb2:	6823      	ldr	r3, [r4, #0]
 8003fb4:	1b5b      	subs	r3, r3, r5
 8003fb6:	d417      	bmi.n	8003fe8 <_malloc_r+0x8c>
 8003fb8:	2b0b      	cmp	r3, #11
 8003fba:	d903      	bls.n	8003fc4 <_malloc_r+0x68>
 8003fbc:	6023      	str	r3, [r4, #0]
 8003fbe:	441c      	add	r4, r3
 8003fc0:	6025      	str	r5, [r4, #0]
 8003fc2:	e004      	b.n	8003fce <_malloc_r+0x72>
 8003fc4:	6863      	ldr	r3, [r4, #4]
 8003fc6:	42a2      	cmp	r2, r4
 8003fc8:	bf0c      	ite	eq
 8003fca:	600b      	streq	r3, [r1, #0]
 8003fcc:	6053      	strne	r3, [r2, #4]
 8003fce:	4630      	mov	r0, r6
 8003fd0:	f000 f85a 	bl	8004088 <__malloc_unlock>
 8003fd4:	f104 000b 	add.w	r0, r4, #11
 8003fd8:	1d23      	adds	r3, r4, #4
 8003fda:	f020 0007 	bic.w	r0, r0, #7
 8003fde:	1ac2      	subs	r2, r0, r3
 8003fe0:	d0cc      	beq.n	8003f7c <_malloc_r+0x20>
 8003fe2:	1a1b      	subs	r3, r3, r0
 8003fe4:	50a3      	str	r3, [r4, r2]
 8003fe6:	e7c9      	b.n	8003f7c <_malloc_r+0x20>
 8003fe8:	4622      	mov	r2, r4
 8003fea:	6864      	ldr	r4, [r4, #4]
 8003fec:	e7cc      	b.n	8003f88 <_malloc_r+0x2c>
 8003fee:	1cc4      	adds	r4, r0, #3
 8003ff0:	f024 0403 	bic.w	r4, r4, #3
 8003ff4:	42a0      	cmp	r0, r4
 8003ff6:	d0e3      	beq.n	8003fc0 <_malloc_r+0x64>
 8003ff8:	1a21      	subs	r1, r4, r0
 8003ffa:	4630      	mov	r0, r6
 8003ffc:	f000 f82e 	bl	800405c <_sbrk_r>
 8004000:	3001      	adds	r0, #1
 8004002:	d1dd      	bne.n	8003fc0 <_malloc_r+0x64>
 8004004:	e7cf      	b.n	8003fa6 <_malloc_r+0x4a>
 8004006:	bf00      	nop
 8004008:	2000009c 	.word	0x2000009c
 800400c:	200000a0 	.word	0x200000a0

08004010 <_realloc_r>:
 8004010:	b5f8      	push	{r3, r4, r5, r6, r7, lr}
 8004012:	4607      	mov	r7, r0
 8004014:	4614      	mov	r4, r2
 8004016:	460e      	mov	r6, r1
 8004018:	b921      	cbnz	r1, 8004024 <_realloc_r+0x14>
 800401a:	e8bd 40f8 	ldmia.w	sp!, {r3, r4, r5, r6, r7, lr}
 800401e:	4611      	mov	r1, r2
 8004020:	f7ff bf9c 	b.w	8003f5c <_malloc_r>
 8004024:	b922      	cbnz	r2, 8004030 <_realloc_r+0x20>
 8004026:	f7ff ff49 	bl	8003ebc <_free_r>
 800402a:	4625      	mov	r5, r4
 800402c:	4628      	mov	r0, r5
 800402e:	bdf8      	pop	{r3, r4, r5, r6, r7, pc}
 8004030:	f000 f830 	bl	8004094 <_malloc_usable_size_r>
 8004034:	42a0      	cmp	r0, r4
 8004036:	d20f      	bcs.n	8004058 <_realloc_r+0x48>
 8004038:	4621      	mov	r1, r4
 800403a:	4638      	mov	r0, r7
 800403c:	f7ff ff8e 	bl	8003f5c <_malloc_r>
 8004040:	4605      	mov	r5, r0
 8004042:	2800      	cmp	r0, #0
 8004044:	d0f2      	beq.n	800402c <_realloc_r+0x1c>
 8004046:	4631      	mov	r1, r6
 8004048:	4622      	mov	r2, r4
 800404a:	f7ff ff0f 	bl	8003e6c <memcpy>
 800404e:	4631      	mov	r1, r6
 8004050:	4638      	mov	r0, r7
 8004052:	f7ff ff33 	bl	8003ebc <_free_r>
 8004056:	e7e9      	b.n	800402c <_realloc_r+0x1c>
 8004058:	4635      	mov	r5, r6
 800405a:	e7e7      	b.n	800402c <_realloc_r+0x1c>

0800405c <_sbrk_r>:
 800405c:	b538      	push	{r3, r4, r5, lr}
 800405e:	4d06      	ldr	r5, [pc, #24]	; (8004078 <_sbrk_r+0x1c>)
 8004060:	2300      	movs	r3, #0
 8004062:	4604      	mov	r4, r0
 8004064:	4608      	mov	r0, r1
 8004066:	602b      	str	r3, [r5, #0]
 8004068:	f7fc fbe6 	bl	8000838 <_sbrk>
 800406c:	1c43      	adds	r3, r0, #1
 800406e:	d102      	bne.n	8004076 <_sbrk_r+0x1a>
 8004070:	682b      	ldr	r3, [r5, #0]
 8004072:	b103      	cbz	r3, 8004076 <_sbrk_r+0x1a>
 8004074:	6023      	str	r3, [r4, #0]
 8004076:	bd38      	pop	{r3, r4, r5, pc}
 8004078:	20000160 	.word	0x20000160

0800407c <__malloc_lock>:
 800407c:	4801      	ldr	r0, [pc, #4]	; (8004084 <__malloc_lock+0x8>)
 800407e:	f000 b811 	b.w	80040a4 <__retarget_lock_acquire_recursive>
 8004082:	bf00      	nop
 8004084:	20000168 	.word	0x20000168

08004088 <__malloc_unlock>:
 8004088:	4801      	ldr	r0, [pc, #4]	; (8004090 <__malloc_unlock+0x8>)
 800408a:	f000 b80c 	b.w	80040a6 <__retarget_lock_release_recursive>
 800408e:	bf00      	nop
 8004090:	20000168 	.word	0x20000168

08004094 <_malloc_usable_size_r>:
 8004094:	f851 3c04 	ldr.w	r3, [r1, #-4]
 8004098:	1f18      	subs	r0, r3, #4
 800409a:	2b00      	cmp	r3, #0
 800409c:	bfbc      	itt	lt
 800409e:	580b      	ldrlt	r3, [r1, r0]
 80040a0:	18c0      	addlt	r0, r0, r3
 80040a2:	4770      	bx	lr

080040a4 <__retarget_lock_acquire_recursive>:
 80040a4:	4770      	bx	lr

080040a6 <__retarget_lock_release_recursive>:
 80040a6:	4770      	bx	lr

080040a8 <_init>:
 80040a8:	b5f8      	push	{r3, r4, r5, r6, r7, lr}
 80040aa:	bf00      	nop
 80040ac:	bcf8      	pop	{r3, r4, r5, r6, r7}
 80040ae:	bc08      	pop	{r3}
 80040b0:	469e      	mov	lr, r3
 80040b2:	4770      	bx	lr

080040b4 <_fini>:
 80040b4:	b5f8      	push	{r3, r4, r5, r6, r7, lr}
 80040b6:	bf00      	nop
 80040b8:	bcf8      	pop	{r3, r4, r5, r6, r7}
 80040ba:	bc08      	pop	{r3}
 80040bc:	469e      	mov	lr, r3
 80040be:	4770      	bx	lr
